
Robot_Actuator_Voja_2015.elf:     file format elf32-avr

Sections:
Idx Name          Size      VMA       LMA       File off  Algn
  0 .data         00000006  00800100  000016ee  00001782  2**0
                  CONTENTS, ALLOC, LOAD, DATA
  1 .text         000016ee  00000000  00000000  00000094  2**1
                  CONTENTS, ALLOC, LOAD, READONLY, CODE
  2 .bss          0000022c  00800106  00800106  00001788  2**0
                  ALLOC

Disassembly of section .text:

00000000 <__vectors>:
       0:	49 c0       	rjmp	.+146    	; 0x94 <__ctors_end>
       2:	00 00       	nop
       4:	65 c0       	rjmp	.+202    	; 0xd0 <__bad_interrupt>
       6:	00 00       	nop
       8:	63 c0       	rjmp	.+198    	; 0xd0 <__bad_interrupt>
       a:	00 00       	nop
       c:	61 c0       	rjmp	.+194    	; 0xd0 <__bad_interrupt>
       e:	00 00       	nop
      10:	5f c0       	rjmp	.+190    	; 0xd0 <__bad_interrupt>
      12:	00 00       	nop
      14:	5d c0       	rjmp	.+186    	; 0xd0 <__bad_interrupt>
      16:	00 00       	nop
      18:	5b c0       	rjmp	.+182    	; 0xd0 <__bad_interrupt>
      1a:	00 00       	nop
      1c:	59 c0       	rjmp	.+178    	; 0xd0 <__bad_interrupt>
      1e:	00 00       	nop
      20:	57 c0       	rjmp	.+174    	; 0xd0 <__bad_interrupt>
      22:	00 00       	nop
      24:	55 c0       	rjmp	.+170    	; 0xd0 <__bad_interrupt>
      26:	00 00       	nop
      28:	53 c0       	rjmp	.+166    	; 0xd0 <__bad_interrupt>
      2a:	00 00       	nop
      2c:	51 c0       	rjmp	.+162    	; 0xd0 <__bad_interrupt>
      2e:	00 00       	nop
      30:	e4 c7       	rjmp	.+4040   	; 0xffa <__vector_12>
      32:	00 00       	nop
      34:	4d c0       	rjmp	.+154    	; 0xd0 <__bad_interrupt>
      36:	00 00       	nop
      38:	4b c0       	rjmp	.+150    	; 0xd0 <__bad_interrupt>
      3a:	00 00       	nop
      3c:	49 c0       	rjmp	.+146    	; 0xd0 <__bad_interrupt>
      3e:	00 00       	nop
      40:	47 c0       	rjmp	.+142    	; 0xd0 <__bad_interrupt>
      42:	00 00       	nop
      44:	45 c0       	rjmp	.+138    	; 0xd0 <__bad_interrupt>
      46:	00 00       	nop
      48:	7a c1       	rjmp	.+756    	; 0x33e <__vector_18>
      4a:	00 00       	nop
      4c:	41 c0       	rjmp	.+130    	; 0xd0 <__bad_interrupt>
      4e:	00 00       	nop
      50:	3f c0       	rjmp	.+126    	; 0xd0 <__bad_interrupt>
      52:	00 00       	nop
      54:	3d c0       	rjmp	.+122    	; 0xd0 <__bad_interrupt>
      56:	00 00       	nop
      58:	3b c0       	rjmp	.+118    	; 0xd0 <__bad_interrupt>
      5a:	00 00       	nop
      5c:	39 c0       	rjmp	.+114    	; 0xd0 <__bad_interrupt>
      5e:	00 00       	nop
      60:	37 c0       	rjmp	.+110    	; 0xd0 <__bad_interrupt>
      62:	00 00       	nop
      64:	35 c0       	rjmp	.+106    	; 0xd0 <__bad_interrupt>
      66:	00 00       	nop
      68:	33 c0       	rjmp	.+102    	; 0xd0 <__bad_interrupt>
      6a:	00 00       	nop
      6c:	31 c0       	rjmp	.+98     	; 0xd0 <__bad_interrupt>
      6e:	00 00       	nop
      70:	2f c0       	rjmp	.+94     	; 0xd0 <__bad_interrupt>
      72:	00 00       	nop
      74:	2d c0       	rjmp	.+90     	; 0xd0 <__bad_interrupt>
      76:	00 00       	nop
      78:	2b c0       	rjmp	.+86     	; 0xd0 <__bad_interrupt>
      7a:	00 00       	nop
      7c:	29 c0       	rjmp	.+82     	; 0xd0 <__bad_interrupt>
      7e:	00 00       	nop
      80:	27 c0       	rjmp	.+78     	; 0xd0 <__bad_interrupt>
      82:	00 00       	nop
      84:	25 c0       	rjmp	.+74     	; 0xd0 <__bad_interrupt>
      86:	00 00       	nop
      88:	23 c0       	rjmp	.+70     	; 0xd0 <__bad_interrupt>
      8a:	00 00       	nop
      8c:	21 c0       	rjmp	.+66     	; 0xd0 <__bad_interrupt>
      8e:	00 00       	nop
      90:	1f c0       	rjmp	.+62     	; 0xd0 <__bad_interrupt>
	...

00000094 <__ctors_end>:
      94:	11 24       	eor	r1, r1
      96:	1f be       	out	0x3f, r1	; 63
      98:	cf ef       	ldi	r28, 0xFF	; 255
      9a:	d0 e1       	ldi	r29, 0x10	; 16
      9c:	de bf       	out	0x3e, r29	; 62
      9e:	cd bf       	out	0x3d, r28	; 61

000000a0 <__do_copy_data>:
      a0:	11 e0       	ldi	r17, 0x01	; 1
      a2:	a0 e0       	ldi	r26, 0x00	; 0
      a4:	b1 e0       	ldi	r27, 0x01	; 1
      a6:	ee ee       	ldi	r30, 0xEE	; 238
      a8:	f6 e1       	ldi	r31, 0x16	; 22
      aa:	00 e0       	ldi	r16, 0x00	; 0
      ac:	0b bf       	out	0x3b, r16	; 59
      ae:	02 c0       	rjmp	.+4      	; 0xb4 <__do_copy_data+0x14>
      b0:	07 90       	elpm	r0, Z+
      b2:	0d 92       	st	X+, r0
      b4:	a6 30       	cpi	r26, 0x06	; 6
      b6:	b1 07       	cpc	r27, r17
      b8:	d9 f7       	brne	.-10     	; 0xb0 <__do_copy_data+0x10>

000000ba <__do_clear_bss>:
      ba:	13 e0       	ldi	r17, 0x03	; 3
      bc:	a6 e0       	ldi	r26, 0x06	; 6
      be:	b1 e0       	ldi	r27, 0x01	; 1
      c0:	01 c0       	rjmp	.+2      	; 0xc4 <.do_clear_bss_start>

000000c2 <.do_clear_bss_loop>:
      c2:	1d 92       	st	X+, r1

000000c4 <.do_clear_bss_start>:
      c4:	a2 33       	cpi	r26, 0x32	; 50
      c6:	b1 07       	cpc	r27, r17
      c8:	e1 f7       	brne	.-8      	; 0xc2 <.do_clear_bss_loop>
      ca:	46 d5       	rcall	.+2700   	; 0xb58 <main>
      cc:	0c 94 75 0b 	jmp	0x16ea	; 0x16ea <_exit>

000000d0 <__bad_interrupt>:
      d0:	97 cf       	rjmp	.-210    	; 0x0 <__vectors>

000000d2 <knockDownTheClapperboards>:
      d2:	df 93       	push	r29
      d4:	cf 93       	push	r28
      d6:	00 d0       	rcall	.+0      	; 0xd8 <knockDownTheClapperboards+0x6>
      d8:	cd b7       	in	r28, 0x3d	; 61
      da:	de b7       	in	r29, 0x3e	; 62
      dc:	89 83       	std	Y+1, r24	; 0x01
      de:	6a 83       	std	Y+2, r22	; 0x02
      e0:	8a 81       	ldd	r24, Y+2	; 0x02
      e2:	81 30       	cpi	r24, 0x01	; 1
      e4:	99 f4       	brne	.+38     	; 0x10c <knockDownTheClapperboards+0x3a>
      e6:	89 81       	ldd	r24, Y+1	; 0x01
      e8:	81 30       	cpi	r24, 0x01	; 1
      ea:	41 f4       	brne	.+16     	; 0xfc <knockDownTheClapperboards+0x2a>
      ec:	8c e3       	ldi	r24, 0x3C	; 60
      ee:	90 e0       	ldi	r25, 0x00	; 0
      f0:	60 ef       	ldi	r22, 0xF0	; 240
      f2:	70 e0       	ldi	r23, 0x00	; 0
      f4:	41 e0       	ldi	r20, 0x01	; 1
      f6:	21 e0       	ldi	r18, 0x01	; 1
      f8:	33 d4       	rcall	.+2150   	; 0x960 <AX_SetAngle>
      fa:	1a c0       	rjmp	.+52     	; 0x130 <knockDownTheClapperboards+0x5e>
      fc:	80 ea       	ldi	r24, 0xA0	; 160
      fe:	90 e0       	ldi	r25, 0x00	; 0
     100:	64 eb       	ldi	r22, 0xB4	; 180
     102:	70 e0       	ldi	r23, 0x00	; 0
     104:	41 e0       	ldi	r20, 0x01	; 1
     106:	23 e0       	ldi	r18, 0x03	; 3
     108:	2b d4       	rcall	.+2134   	; 0x960 <AX_SetAngle>
     10a:	12 c0       	rjmp	.+36     	; 0x130 <knockDownTheClapperboards+0x5e>
     10c:	89 81       	ldd	r24, Y+1	; 0x01
     10e:	81 30       	cpi	r24, 0x01	; 1
     110:	41 f4       	brne	.+16     	; 0x122 <knockDownTheClapperboards+0x50>
     112:	80 ea       	ldi	r24, 0xA0	; 160
     114:	90 e0       	ldi	r25, 0x00	; 0
     116:	60 ef       	ldi	r22, 0xF0	; 240
     118:	70 e0       	ldi	r23, 0x00	; 0
     11a:	41 e0       	ldi	r20, 0x01	; 1
     11c:	21 e0       	ldi	r18, 0x01	; 1
     11e:	20 d4       	rcall	.+2112   	; 0x960 <AX_SetAngle>
     120:	07 c0       	rjmp	.+14     	; 0x130 <knockDownTheClapperboards+0x5e>
     122:	8c e3       	ldi	r24, 0x3C	; 60
     124:	90 e0       	ldi	r25, 0x00	; 0
     126:	64 eb       	ldi	r22, 0xB4	; 180
     128:	70 e0       	ldi	r23, 0x00	; 0
     12a:	41 e0       	ldi	r20, 0x01	; 1
     12c:	23 e0       	ldi	r18, 0x03	; 3
     12e:	18 d4       	rcall	.+2096   	; 0x960 <AX_SetAngle>
     130:	0f 90       	pop	r0
     132:	0f 90       	pop	r0
     134:	cf 91       	pop	r28
     136:	df 91       	pop	r29
     138:	08 95       	ret

0000013a <colectThePopcorn>:
     13a:	df 93       	push	r29
     13c:	cf 93       	push	r28
     13e:	00 d0       	rcall	.+0      	; 0x140 <colectThePopcorn+0x6>
     140:	cd b7       	in	r28, 0x3d	; 61
     142:	de b7       	in	r29, 0x3e	; 62
     144:	89 83       	std	Y+1, r24	; 0x01
     146:	6a 83       	std	Y+2, r22	; 0x02
     148:	8a 81       	ldd	r24, Y+2	; 0x02
     14a:	81 30       	cpi	r24, 0x01	; 1
     14c:	99 f4       	brne	.+38     	; 0x174 <colectThePopcorn+0x3a>
     14e:	89 81       	ldd	r24, Y+1	; 0x01
     150:	81 30       	cpi	r24, 0x01	; 1
     152:	41 f4       	brne	.+16     	; 0x164 <colectThePopcorn+0x2a>
     154:	80 e4       	ldi	r24, 0x40	; 64
     156:	91 e0       	ldi	r25, 0x01	; 1
     158:	60 ef       	ldi	r22, 0xF0	; 240
     15a:	70 e0       	ldi	r23, 0x00	; 0
     15c:	41 e0       	ldi	r20, 0x01	; 1
     15e:	22 e0       	ldi	r18, 0x02	; 2
     160:	ff d3       	rcall	.+2046   	; 0x960 <AX_SetAngle>
     162:	1a c0       	rjmp	.+52     	; 0x198 <colectThePopcorn+0x5e>
     164:	82 e3       	ldi	r24, 0x32	; 50
     166:	90 e0       	ldi	r25, 0x00	; 0
     168:	60 ef       	ldi	r22, 0xF0	; 240
     16a:	70 e0       	ldi	r23, 0x00	; 0
     16c:	41 e0       	ldi	r20, 0x01	; 1
     16e:	24 e0       	ldi	r18, 0x04	; 4
     170:	f7 d3       	rcall	.+2030   	; 0x960 <AX_SetAngle>
     172:	12 c0       	rjmp	.+36     	; 0x198 <colectThePopcorn+0x5e>
     174:	89 81       	ldd	r24, Y+1	; 0x01
     176:	81 30       	cpi	r24, 0x01	; 1
     178:	41 f4       	brne	.+16     	; 0x18a <colectThePopcorn+0x50>
     17a:	88 e1       	ldi	r24, 0x18	; 24
     17c:	91 e0       	ldi	r25, 0x01	; 1
     17e:	60 ef       	ldi	r22, 0xF0	; 240
     180:	70 e0       	ldi	r23, 0x00	; 0
     182:	41 e0       	ldi	r20, 0x01	; 1
     184:	22 e0       	ldi	r18, 0x02	; 2
     186:	ec d3       	rcall	.+2008   	; 0x960 <AX_SetAngle>
     188:	07 c0       	rjmp	.+14     	; 0x198 <colectThePopcorn+0x5e>
     18a:	8a e5       	ldi	r24, 0x5A	; 90
     18c:	90 e0       	ldi	r25, 0x00	; 0
     18e:	60 ef       	ldi	r22, 0xF0	; 240
     190:	70 e0       	ldi	r23, 0x00	; 0
     192:	41 e0       	ldi	r20, 0x01	; 1
     194:	24 e0       	ldi	r18, 0x04	; 4
     196:	e4 d3       	rcall	.+1992   	; 0x960 <AX_SetAngle>
     198:	0f 90       	pop	r0
     19a:	0f 90       	pop	r0
     19c:	cf 91       	pop	r28
     19e:	df 91       	pop	r29
     1a0:	08 95       	ret

000001a2 <rightDiafram>:
     1a2:	df 93       	push	r29
     1a4:	cf 93       	push	r28
     1a6:	0f 92       	push	r0
     1a8:	cd b7       	in	r28, 0x3d	; 61
     1aa:	de b7       	in	r29, 0x3e	; 62
     1ac:	89 83       	std	Y+1, r24	; 0x01
     1ae:	ad e2       	ldi	r26, 0x2D	; 45
     1b0:	b0 e0       	ldi	r27, 0x00	; 0
     1b2:	ed e2       	ldi	r30, 0x2D	; 45
     1b4:	f0 e0       	ldi	r31, 0x00	; 0
     1b6:	80 81       	ld	r24, Z
     1b8:	80 61       	ori	r24, 0x10	; 16
     1ba:	8c 93       	st	X, r24
     1bc:	89 81       	ldd	r24, Y+1	; 0x01
     1be:	81 30       	cpi	r24, 0x01	; 1
     1c0:	41 f4       	brne	.+16     	; 0x1d2 <rightDiafram+0x30>
     1c2:	ae e2       	ldi	r26, 0x2E	; 46
     1c4:	b0 e0       	ldi	r27, 0x00	; 0
     1c6:	ee e2       	ldi	r30, 0x2E	; 46
     1c8:	f0 e0       	ldi	r31, 0x00	; 0
     1ca:	80 81       	ld	r24, Z
     1cc:	80 61       	ori	r24, 0x10	; 16
     1ce:	8c 93       	st	X, r24
     1d0:	07 c0       	rjmp	.+14     	; 0x1e0 <rightDiafram+0x3e>
     1d2:	ae e2       	ldi	r26, 0x2E	; 46
     1d4:	b0 e0       	ldi	r27, 0x00	; 0
     1d6:	ee e2       	ldi	r30, 0x2E	; 46
     1d8:	f0 e0       	ldi	r31, 0x00	; 0
     1da:	80 81       	ld	r24, Z
     1dc:	8f 7e       	andi	r24, 0xEF	; 239
     1de:	8c 93       	st	X, r24
     1e0:	0f 90       	pop	r0
     1e2:	cf 91       	pop	r28
     1e4:	df 91       	pop	r29
     1e6:	08 95       	ret

000001e8 <leftDiafram>:
     1e8:	df 93       	push	r29
     1ea:	cf 93       	push	r28
     1ec:	0f 92       	push	r0
     1ee:	cd b7       	in	r28, 0x3d	; 61
     1f0:	de b7       	in	r29, 0x3e	; 62
     1f2:	89 83       	std	Y+1, r24	; 0x01
     1f4:	ad e2       	ldi	r26, 0x2D	; 45
     1f6:	b0 e0       	ldi	r27, 0x00	; 0
     1f8:	ed e2       	ldi	r30, 0x2D	; 45
     1fa:	f0 e0       	ldi	r31, 0x00	; 0
     1fc:	80 81       	ld	r24, Z
     1fe:	80 62       	ori	r24, 0x20	; 32
     200:	8c 93       	st	X, r24
     202:	89 81       	ldd	r24, Y+1	; 0x01
     204:	81 30       	cpi	r24, 0x01	; 1
     206:	41 f4       	brne	.+16     	; 0x218 <leftDiafram+0x30>
     208:	ae e2       	ldi	r26, 0x2E	; 46
     20a:	b0 e0       	ldi	r27, 0x00	; 0
     20c:	ee e2       	ldi	r30, 0x2E	; 46
     20e:	f0 e0       	ldi	r31, 0x00	; 0
     210:	80 81       	ld	r24, Z
     212:	80 62       	ori	r24, 0x20	; 32
     214:	8c 93       	st	X, r24
     216:	07 c0       	rjmp	.+14     	; 0x226 <leftDiafram+0x3e>
     218:	ae e2       	ldi	r26, 0x2E	; 46
     21a:	b0 e0       	ldi	r27, 0x00	; 0
     21c:	ee e2       	ldi	r30, 0x2E	; 46
     21e:	f0 e0       	ldi	r31, 0x00	; 0
     220:	80 81       	ld	r24, Z
     222:	8f 7d       	andi	r24, 0xDF	; 223
     224:	8c 93       	st	X, r24
     226:	0f 90       	pop	r0
     228:	cf 91       	pop	r28
     22a:	df 91       	pop	r29
     22c:	08 95       	ret

0000022e <liftStates>:
     22e:	df 93       	push	r29
     230:	cf 93       	push	r28
     232:	0f 92       	push	r0
     234:	cd b7       	in	r28, 0x3d	; 61
     236:	de b7       	in	r29, 0x3e	; 62
     238:	89 83       	std	Y+1, r24	; 0x01
     23a:	80 91 28 03 	lds	r24, 0x0328
     23e:	aa d5       	rcall	.+2900   	; 0xd94 <GPIO_OutputSet>
     240:	80 91 29 03 	lds	r24, 0x0329
     244:	a7 d5       	rcall	.+2894   	; 0xd94 <GPIO_OutputSet>
     246:	80 91 2a 03 	lds	r24, 0x032A
     24a:	a4 d5       	rcall	.+2888   	; 0xd94 <GPIO_OutputSet>
     24c:	80 91 2c 03 	lds	r24, 0x032C
     250:	de d5       	rcall	.+3004   	; 0xe0e <GPIO_OutputReset>
     252:	89 81       	ldd	r24, Y+1	; 0x01
     254:	81 30       	cpi	r24, 0x01	; 1
     256:	21 f4       	brne	.+8      	; 0x260 <liftStates+0x32>
     258:	80 91 2a 03 	lds	r24, 0x032A
     25c:	9b d5       	rcall	.+2870   	; 0xd94 <GPIO_OutputSet>
     25e:	03 c0       	rjmp	.+6      	; 0x266 <liftStates+0x38>
     260:	80 91 2a 03 	lds	r24, 0x032A
     264:	d4 d5       	rcall	.+2984   	; 0xe0e <GPIO_OutputReset>
     266:	0f 90       	pop	r0
     268:	cf 91       	pop	r28
     26a:	df 91       	pop	r29
     26c:	08 95       	ret

0000026e <action>:
     26e:	0f 93       	push	r16
     270:	1f 93       	push	r17
     272:	df 93       	push	r29
     274:	cf 93       	push	r28
     276:	cd b7       	in	r28, 0x3d	; 61
     278:	de b7       	in	r29, 0x3e	; 62
     27a:	2f 97       	sbiw	r28, 0x0f	; 15
     27c:	0f b6       	in	r0, 0x3f	; 63
     27e:	f8 94       	cli
     280:	de bf       	out	0x3e, r29	; 62
     282:	0f be       	out	0x3f, r0	; 63
     284:	cd bf       	out	0x3d, r28	; 61
     286:	0c 83       	std	Y+4, r16	; 0x04
     288:	1d 83       	std	Y+5, r17	; 0x05
     28a:	2e 83       	std	Y+6, r18	; 0x06
     28c:	3f 83       	std	Y+7, r19	; 0x07
     28e:	48 87       	std	Y+8, r20	; 0x08
     290:	59 87       	std	Y+9, r21	; 0x09
     292:	6a 87       	std	Y+10, r22	; 0x0a
     294:	7b 87       	std	Y+11, r23	; 0x0b
     296:	8c 87       	std	Y+12, r24	; 0x0c
     298:	9d 87       	std	Y+13, r25	; 0x0d
     29a:	8c 81       	ldd	r24, Y+4	; 0x04
     29c:	8b 83       	std	Y+3, r24	; 0x03
     29e:	8b 81       	ldd	r24, Y+3	; 0x03
     2a0:	28 2f       	mov	r18, r24
     2a2:	30 e0       	ldi	r19, 0x00	; 0
     2a4:	3f 87       	std	Y+15, r19	; 0x0f
     2a6:	2e 87       	std	Y+14, r18	; 0x0e
     2a8:	8e 85       	ldd	r24, Y+14	; 0x0e
     2aa:	9f 85       	ldd	r25, Y+15	; 0x0f
     2ac:	83 34       	cpi	r24, 0x43	; 67
     2ae:	91 05       	cpc	r25, r1
     2b0:	69 f1       	breq	.+90     	; 0x30c <action+0x9e>
     2b2:	2e 85       	ldd	r18, Y+14	; 0x0e
     2b4:	3f 85       	ldd	r19, Y+15	; 0x0f
     2b6:	24 34       	cpi	r18, 0x44	; 68
     2b8:	31 05       	cpc	r19, r1
     2ba:	5c f4       	brge	.+22     	; 0x2d2 <action+0x64>
     2bc:	8e 85       	ldd	r24, Y+14	; 0x0e
     2be:	9f 85       	ldd	r25, Y+15	; 0x0f
     2c0:	81 34       	cpi	r24, 0x41	; 65
     2c2:	91 05       	cpc	r25, r1
     2c4:	89 f0       	breq	.+34     	; 0x2e8 <action+0x7a>
     2c6:	2e 85       	ldd	r18, Y+14	; 0x0e
     2c8:	3f 85       	ldd	r19, Y+15	; 0x0f
     2ca:	22 34       	cpi	r18, 0x42	; 66
     2cc:	31 05       	cpc	r19, r1
     2ce:	a9 f0       	breq	.+42     	; 0x2fa <action+0x8c>
     2d0:	2b c0       	rjmp	.+86     	; 0x328 <action+0xba>
     2d2:	8e 85       	ldd	r24, Y+14	; 0x0e
     2d4:	9f 85       	ldd	r25, Y+15	; 0x0f
     2d6:	84 34       	cpi	r24, 0x44	; 68
     2d8:	91 05       	cpc	r25, r1
     2da:	e9 f0       	breq	.+58     	; 0x316 <action+0xa8>
     2dc:	2e 85       	ldd	r18, Y+14	; 0x0e
     2de:	3f 85       	ldd	r19, Y+15	; 0x0f
     2e0:	25 34       	cpi	r18, 0x45	; 69
     2e2:	31 05       	cpc	r19, r1
     2e4:	e9 f0       	breq	.+58     	; 0x320 <action+0xb2>
     2e6:	20 c0       	rjmp	.+64     	; 0x328 <action+0xba>
     2e8:	8d 81       	ldd	r24, Y+5	; 0x05
     2ea:	8a 83       	std	Y+2, r24	; 0x02
     2ec:	8e 81       	ldd	r24, Y+6	; 0x06
     2ee:	89 83       	std	Y+1, r24	; 0x01
     2f0:	8a 81       	ldd	r24, Y+2	; 0x02
     2f2:	99 81       	ldd	r25, Y+1	; 0x01
     2f4:	69 2f       	mov	r22, r25
     2f6:	ed de       	rcall	.-550    	; 0xd2 <knockDownTheClapperboards>
     2f8:	17 c0       	rjmp	.+46     	; 0x328 <action+0xba>
     2fa:	8d 81       	ldd	r24, Y+5	; 0x05
     2fc:	8a 83       	std	Y+2, r24	; 0x02
     2fe:	8e 81       	ldd	r24, Y+6	; 0x06
     300:	89 83       	std	Y+1, r24	; 0x01
     302:	8a 81       	ldd	r24, Y+2	; 0x02
     304:	99 81       	ldd	r25, Y+1	; 0x01
     306:	69 2f       	mov	r22, r25
     308:	18 df       	rcall	.-464    	; 0x13a <colectThePopcorn>
     30a:	0e c0       	rjmp	.+28     	; 0x328 <action+0xba>
     30c:	8d 81       	ldd	r24, Y+5	; 0x05
     30e:	89 83       	std	Y+1, r24	; 0x01
     310:	89 81       	ldd	r24, Y+1	; 0x01
     312:	6a df       	rcall	.-300    	; 0x1e8 <leftDiafram>
     314:	09 c0       	rjmp	.+18     	; 0x328 <action+0xba>
     316:	8d 81       	ldd	r24, Y+5	; 0x05
     318:	89 83       	std	Y+1, r24	; 0x01
     31a:	89 81       	ldd	r24, Y+1	; 0x01
     31c:	42 df       	rcall	.-380    	; 0x1a2 <rightDiafram>
     31e:	04 c0       	rjmp	.+8      	; 0x328 <action+0xba>
     320:	8d 81       	ldd	r24, Y+5	; 0x05
     322:	89 83       	std	Y+1, r24	; 0x01
     324:	89 81       	ldd	r24, Y+1	; 0x01
     326:	83 df       	rcall	.-250    	; 0x22e <liftStates>
     328:	2f 96       	adiw	r28, 0x0f	; 15
     32a:	0f b6       	in	r0, 0x3f	; 63
     32c:	f8 94       	cli
     32e:	de bf       	out	0x3e, r29	; 62
     330:	0f be       	out	0x3f, r0	; 63
     332:	cd bf       	out	0x3d, r28	; 61
     334:	cf 91       	pop	r28
     336:	df 91       	pop	r29
     338:	1f 91       	pop	r17
     33a:	0f 91       	pop	r16
     33c:	08 95       	ret

0000033e <__vector_18>:
     33e:	1f 92       	push	r1
     340:	0f 92       	push	r0
     342:	0f b6       	in	r0, 0x3f	; 63
     344:	0f 92       	push	r0
     346:	00 90 5b 00 	lds	r0, 0x005B
     34a:	0f 92       	push	r0
     34c:	11 24       	eor	r1, r1
     34e:	2f 93       	push	r18
     350:	3f 93       	push	r19
     352:	4f 93       	push	r20
     354:	5f 93       	push	r21
     356:	6f 93       	push	r22
     358:	7f 93       	push	r23
     35a:	8f 93       	push	r24
     35c:	9f 93       	push	r25
     35e:	af 93       	push	r26
     360:	bf 93       	push	r27
     362:	ef 93       	push	r30
     364:	ff 93       	push	r31
     366:	df 93       	push	r29
     368:	cf 93       	push	r28
     36a:	00 d0       	rcall	.+0      	; 0x36c <__vector_18+0x2e>
     36c:	0f 92       	push	r0
     36e:	cd b7       	in	r28, 0x3d	; 61
     370:	de b7       	in	r29, 0x3e	; 62
     372:	ed ee       	ldi	r30, 0xED	; 237
     374:	f0 e0       	ldi	r31, 0x00	; 0
     376:	80 81       	ld	r24, Z
     378:	8b 83       	std	Y+3, r24	; 0x03
     37a:	1a 82       	std	Y+2, r1	; 0x02
     37c:	95 c0       	rjmp	.+298    	; 0x4a8 <__vector_18+0x16a>
     37e:	ed ee       	ldi	r30, 0xED	; 237
     380:	f0 e0       	ldi	r31, 0x00	; 0
     382:	8a 81       	ldd	r24, Y+2	; 0x02
     384:	82 95       	swap	r24
     386:	80 7f       	andi	r24, 0xF0	; 240
     388:	80 83       	st	Z, r24
     38a:	ee ee       	ldi	r30, 0xEE	; 238
     38c:	f0 e0       	ldi	r31, 0x00	; 0
     38e:	80 81       	ld	r24, Z
     390:	82 95       	swap	r24
     392:	86 95       	lsr	r24
     394:	87 70       	andi	r24, 0x07	; 7
     396:	88 2f       	mov	r24, r24
     398:	90 e0       	ldi	r25, 0x00	; 0
     39a:	81 70       	andi	r24, 0x01	; 1
     39c:	90 70       	andi	r25, 0x00	; 0
     39e:	88 23       	and	r24, r24
     3a0:	09 f4       	brne	.+2      	; 0x3a4 <__vector_18+0x66>
     3a2:	67 c0       	rjmp	.+206    	; 0x472 <__vector_18+0x134>
     3a4:	ef ee       	ldi	r30, 0xEF	; 239
     3a6:	f0 e0       	ldi	r31, 0x00	; 0
     3a8:	80 e8       	ldi	r24, 0x80	; 128
     3aa:	80 83       	st	Z, r24
     3ac:	ae ee       	ldi	r26, 0xEE	; 238
     3ae:	b0 e0       	ldi	r27, 0x00	; 0
     3b0:	ee ee       	ldi	r30, 0xEE	; 238
     3b2:	f0 e0       	ldi	r31, 0x00	; 0
     3b4:	80 81       	ld	r24, Z
     3b6:	8f 7d       	andi	r24, 0xDF	; 223
     3b8:	8c 93       	st	X, r24
     3ba:	19 82       	std	Y+1, r1	; 0x01
     3bc:	1d c0       	rjmp	.+58     	; 0x3f8 <__vector_18+0xba>
     3be:	80 91 07 01 	lds	r24, 0x0107
     3c2:	28 2f       	mov	r18, r24
     3c4:	30 e0       	ldi	r19, 0x00	; 0
     3c6:	89 81       	ldd	r24, Y+1	; 0x01
     3c8:	48 2f       	mov	r20, r24
     3ca:	50 e0       	ldi	r21, 0x00	; 0
     3cc:	ea ef       	ldi	r30, 0xFA	; 250
     3ce:	f0 e0       	ldi	r31, 0x00	; 0
     3d0:	60 81       	ld	r22, Z
     3d2:	c9 01       	movw	r24, r18
     3d4:	88 0f       	add	r24, r24
     3d6:	99 1f       	adc	r25, r25
     3d8:	9c 01       	movw	r18, r24
     3da:	22 0f       	add	r18, r18
     3dc:	33 1f       	adc	r19, r19
     3de:	22 0f       	add	r18, r18
     3e0:	33 1f       	adc	r19, r19
     3e2:	82 0f       	add	r24, r18
     3e4:	93 1f       	adc	r25, r19
     3e6:	84 0f       	add	r24, r20
     3e8:	95 1f       	adc	r25, r21
     3ea:	fc 01       	movw	r30, r24
     3ec:	e7 5f       	subi	r30, 0xF7	; 247
     3ee:	fe 4f       	sbci	r31, 0xFE	; 254
     3f0:	60 83       	st	Z, r22
     3f2:	89 81       	ldd	r24, Y+1	; 0x01
     3f4:	8f 5f       	subi	r24, 0xFF	; 255
     3f6:	89 83       	std	Y+1, r24	; 0x01
     3f8:	89 81       	ldd	r24, Y+1	; 0x01
     3fa:	88 30       	cpi	r24, 0x08	; 8
     3fc:	00 f3       	brcs	.-64     	; 0x3be <__vector_18+0x80>
     3fe:	80 91 07 01 	lds	r24, 0x0107
     402:	68 2f       	mov	r22, r24
     404:	70 e0       	ldi	r23, 0x00	; 0
     406:	e2 ef       	ldi	r30, 0xF2	; 242
     408:	f0 e0       	ldi	r31, 0x00	; 0
     40a:	80 81       	ld	r24, Z
     40c:	82 95       	swap	r24
     40e:	86 95       	lsr	r24
     410:	87 70       	andi	r24, 0x07	; 7
     412:	28 2f       	mov	r18, r24
     414:	30 e0       	ldi	r19, 0x00	; 0
     416:	e3 ef       	ldi	r30, 0xF3	; 243
     418:	f0 e0       	ldi	r31, 0x00	; 0
     41a:	80 81       	ld	r24, Z
     41c:	88 2f       	mov	r24, r24
     41e:	90 e0       	ldi	r25, 0x00	; 0
     420:	88 0f       	add	r24, r24
     422:	99 1f       	adc	r25, r25
     424:	88 0f       	add	r24, r24
     426:	99 1f       	adc	r25, r25
     428:	88 0f       	add	r24, r24
     42a:	99 1f       	adc	r25, r25
     42c:	82 2b       	or	r24, r18
     42e:	93 2b       	or	r25, r19
     430:	ac 01       	movw	r20, r24
     432:	cb 01       	movw	r24, r22
     434:	88 0f       	add	r24, r24
     436:	99 1f       	adc	r25, r25
     438:	9c 01       	movw	r18, r24
     43a:	22 0f       	add	r18, r18
     43c:	33 1f       	adc	r19, r19
     43e:	22 0f       	add	r18, r18
     440:	33 1f       	adc	r19, r19
     442:	82 0f       	add	r24, r18
     444:	93 1f       	adc	r25, r19
     446:	fc 01       	movw	r30, r24
     448:	ef 5e       	subi	r30, 0xEF	; 239
     44a:	fe 4f       	sbci	r31, 0xFE	; 254
     44c:	51 83       	std	Z+1, r21	; 0x01
     44e:	40 83       	st	Z, r20
     450:	80 91 07 01 	lds	r24, 0x0107
     454:	8f 5f       	subi	r24, 0xFF	; 255
     456:	80 93 07 01 	sts	0x0107, r24
     45a:	80 91 07 01 	lds	r24, 0x0107
     45e:	82 33       	cpi	r24, 0x32	; 50
     460:	11 f4       	brne	.+4      	; 0x466 <__vector_18+0x128>
     462:	10 92 07 01 	sts	0x0107, r1
     466:	80 91 08 01 	lds	r24, 0x0108
     46a:	8f 5f       	subi	r24, 0xFF	; 255
     46c:	80 93 08 01 	sts	0x0108, r24
     470:	1f c0       	rjmp	.+62     	; 0x4b0 <__vector_18+0x172>
     472:	ee ee       	ldi	r30, 0xEE	; 238
     474:	f0 e0       	ldi	r31, 0x00	; 0
     476:	80 81       	ld	r24, Z
     478:	82 95       	swap	r24
     47a:	86 95       	lsr	r24
     47c:	86 95       	lsr	r24
     47e:	83 70       	andi	r24, 0x03	; 3
     480:	88 2f       	mov	r24, r24
     482:	90 e0       	ldi	r25, 0x00	; 0
     484:	81 70       	andi	r24, 0x01	; 1
     486:	90 70       	andi	r25, 0x00	; 0
     488:	88 23       	and	r24, r24
     48a:	59 f0       	breq	.+22     	; 0x4a2 <__vector_18+0x164>
     48c:	ef ee       	ldi	r30, 0xEF	; 239
     48e:	f0 e0       	ldi	r31, 0x00	; 0
     490:	10 82       	st	Z, r1
     492:	ae ee       	ldi	r26, 0xEE	; 238
     494:	b0 e0       	ldi	r27, 0x00	; 0
     496:	ee ee       	ldi	r30, 0xEE	; 238
     498:	f0 e0       	ldi	r31, 0x00	; 0
     49a:	80 81       	ld	r24, Z
     49c:	8f 7b       	andi	r24, 0xBF	; 191
     49e:	8c 93       	st	X, r24
     4a0:	07 c0       	rjmp	.+14     	; 0x4b0 <__vector_18+0x172>
     4a2:	8a 81       	ldd	r24, Y+2	; 0x02
     4a4:	8f 5f       	subi	r24, 0xFF	; 255
     4a6:	8a 83       	std	Y+2, r24	; 0x02
     4a8:	8a 81       	ldd	r24, Y+2	; 0x02
     4aa:	8f 30       	cpi	r24, 0x0F	; 15
     4ac:	08 f4       	brcc	.+2      	; 0x4b0 <__vector_18+0x172>
     4ae:	67 cf       	rjmp	.-306    	; 0x37e <__vector_18+0x40>
     4b0:	ed ee       	ldi	r30, 0xED	; 237
     4b2:	f0 e0       	ldi	r31, 0x00	; 0
     4b4:	8b 81       	ldd	r24, Y+3	; 0x03
     4b6:	80 83       	st	Z, r24
     4b8:	aa ed       	ldi	r26, 0xDA	; 218
     4ba:	b0 e0       	ldi	r27, 0x00	; 0
     4bc:	ea ed       	ldi	r30, 0xDA	; 218
     4be:	f0 e0       	ldi	r31, 0x00	; 0
     4c0:	80 81       	ld	r24, Z
     4c2:	8c 93       	st	X, r24
     4c4:	0f 90       	pop	r0
     4c6:	0f 90       	pop	r0
     4c8:	0f 90       	pop	r0
     4ca:	cf 91       	pop	r28
     4cc:	df 91       	pop	r29
     4ce:	ff 91       	pop	r31
     4d0:	ef 91       	pop	r30
     4d2:	bf 91       	pop	r27
     4d4:	af 91       	pop	r26
     4d6:	9f 91       	pop	r25
     4d8:	8f 91       	pop	r24
     4da:	7f 91       	pop	r23
     4dc:	6f 91       	pop	r22
     4de:	5f 91       	pop	r21
     4e0:	4f 91       	pop	r20
     4e2:	3f 91       	pop	r19
     4e4:	2f 91       	pop	r18
     4e6:	0f 90       	pop	r0
     4e8:	00 92 5b 00 	sts	0x005B, r0
     4ec:	0f 90       	pop	r0
     4ee:	0f be       	out	0x3f, r0	; 63
     4f0:	0f 90       	pop	r0
     4f2:	1f 90       	pop	r1
     4f4:	18 95       	reti

000004f6 <CAN_Init>:
     4f6:	df 93       	push	r29
     4f8:	cf 93       	push	r28
     4fa:	00 d0       	rcall	.+0      	; 0x4fc <CAN_Init+0x6>
     4fc:	cd b7       	in	r28, 0x3d	; 61
     4fe:	de b7       	in	r29, 0x3e	; 62
     500:	e8 ed       	ldi	r30, 0xD8	; 216
     502:	f0 e0       	ldi	r31, 0x00	; 0
     504:	81 e0       	ldi	r24, 0x01	; 1
     506:	80 83       	st	Z, r24
     508:	1a 82       	std	Y+2, r1	; 0x02
     50a:	32 c0       	rjmp	.+100    	; 0x570 <CAN_Init+0x7a>
     50c:	ed ee       	ldi	r30, 0xED	; 237
     50e:	f0 e0       	ldi	r31, 0x00	; 0
     510:	8a 81       	ldd	r24, Y+2	; 0x02
     512:	82 95       	swap	r24
     514:	80 7f       	andi	r24, 0xF0	; 240
     516:	80 83       	st	Z, r24
     518:	ee ee       	ldi	r30, 0xEE	; 238
     51a:	f0 e0       	ldi	r31, 0x00	; 0
     51c:	10 82       	st	Z, r1
     51e:	ef ee       	ldi	r30, 0xEF	; 239
     520:	f0 e0       	ldi	r31, 0x00	; 0
     522:	10 82       	st	Z, r1
     524:	e3 ef       	ldi	r30, 0xF3	; 243
     526:	f0 e0       	ldi	r31, 0x00	; 0
     528:	10 82       	st	Z, r1
     52a:	e2 ef       	ldi	r30, 0xF2	; 242
     52c:	f0 e0       	ldi	r31, 0x00	; 0
     52e:	10 82       	st	Z, r1
     530:	e1 ef       	ldi	r30, 0xF1	; 241
     532:	f0 e0       	ldi	r31, 0x00	; 0
     534:	10 82       	st	Z, r1
     536:	e0 ef       	ldi	r30, 0xF0	; 240
     538:	f0 e0       	ldi	r31, 0x00	; 0
     53a:	10 82       	st	Z, r1
     53c:	e7 ef       	ldi	r30, 0xF7	; 247
     53e:	f0 e0       	ldi	r31, 0x00	; 0
     540:	10 82       	st	Z, r1
     542:	e6 ef       	ldi	r30, 0xF6	; 246
     544:	f0 e0       	ldi	r31, 0x00	; 0
     546:	10 82       	st	Z, r1
     548:	e5 ef       	ldi	r30, 0xF5	; 245
     54a:	f0 e0       	ldi	r31, 0x00	; 0
     54c:	10 82       	st	Z, r1
     54e:	e4 ef       	ldi	r30, 0xF4	; 244
     550:	f0 e0       	ldi	r31, 0x00	; 0
     552:	10 82       	st	Z, r1
     554:	19 82       	std	Y+1, r1	; 0x01
     556:	06 c0       	rjmp	.+12     	; 0x564 <CAN_Init+0x6e>
     558:	ea ef       	ldi	r30, 0xFA	; 250
     55a:	f0 e0       	ldi	r31, 0x00	; 0
     55c:	10 82       	st	Z, r1
     55e:	89 81       	ldd	r24, Y+1	; 0x01
     560:	8f 5f       	subi	r24, 0xFF	; 255
     562:	89 83       	std	Y+1, r24	; 0x01
     564:	89 81       	ldd	r24, Y+1	; 0x01
     566:	88 30       	cpi	r24, 0x08	; 8
     568:	b8 f3       	brcs	.-18     	; 0x558 <CAN_Init+0x62>
     56a:	8a 81       	ldd	r24, Y+2	; 0x02
     56c:	8f 5f       	subi	r24, 0xFF	; 255
     56e:	8a 83       	std	Y+2, r24	; 0x02
     570:	8a 81       	ldd	r24, Y+2	; 0x02
     572:	8f 30       	cpi	r24, 0x0F	; 15
     574:	58 f2       	brcs	.-106    	; 0x50c <CAN_Init+0x16>
     576:	e8 ed       	ldi	r30, 0xD8	; 216
     578:	f0 e0       	ldi	r31, 0x00	; 0
     57a:	82 e0       	ldi	r24, 0x02	; 2
     57c:	80 83       	st	Z, r24
     57e:	e2 ee       	ldi	r30, 0xE2	; 226
     580:	f0 e0       	ldi	r31, 0x00	; 0
     582:	81 e0       	ldi	r24, 0x01	; 1
     584:	80 83       	st	Z, r24
     586:	e3 ee       	ldi	r30, 0xE3	; 227
     588:	f0 e0       	ldi	r31, 0x00	; 0
     58a:	8a e0       	ldi	r24, 0x0A	; 10
     58c:	80 83       	st	Z, r24
     58e:	e4 ee       	ldi	r30, 0xE4	; 228
     590:	f0 e0       	ldi	r31, 0x00	; 0
     592:	8e e6       	ldi	r24, 0x6E	; 110
     594:	80 83       	st	Z, r24
     596:	e5 ee       	ldi	r30, 0xE5	; 229
     598:	f0 e0       	ldi	r31, 0x00	; 0
     59a:	10 82       	st	Z, r1
     59c:	eb ed       	ldi	r30, 0xDB	; 219
     59e:	f0 e0       	ldi	r31, 0x00	; 0
     5a0:	80 eb       	ldi	r24, 0xB0	; 176
     5a2:	80 83       	st	Z, r24
     5a4:	ef ed       	ldi	r30, 0xDF	; 223
     5a6:	f0 e0       	ldi	r31, 0x00	; 0
     5a8:	8f e7       	ldi	r24, 0x7F	; 127
     5aa:	80 83       	st	Z, r24
     5ac:	ee ed       	ldi	r30, 0xDE	; 222
     5ae:	f0 e0       	ldi	r31, 0x00	; 0
     5b0:	8f ef       	ldi	r24, 0xFF	; 255
     5b2:	80 83       	st	Z, r24
     5b4:	0f 90       	pop	r0
     5b6:	0f 90       	pop	r0
     5b8:	cf 91       	pop	r28
     5ba:	df 91       	pop	r29
     5bc:	08 95       	ret

000005be <CAN_InitRxMob>:
     5be:	df 93       	push	r29
     5c0:	cf 93       	push	r28
     5c2:	00 d0       	rcall	.+0      	; 0x5c4 <CAN_InitRxMob+0x6>
     5c4:	00 d0       	rcall	.+0      	; 0x5c6 <CAN_InitRxMob+0x8>
     5c6:	0f 92       	push	r0
     5c8:	cd b7       	in	r28, 0x3d	; 61
     5ca:	de b7       	in	r29, 0x3e	; 62
     5cc:	9c 83       	std	Y+4, r25	; 0x04
     5ce:	8b 83       	std	Y+3, r24	; 0x03
     5d0:	ed ee       	ldi	r30, 0xED	; 237
     5d2:	f0 e0       	ldi	r31, 0x00	; 0
     5d4:	80 81       	ld	r24, Z
     5d6:	89 83       	std	Y+1, r24	; 0x01
     5d8:	e9 ed       	ldi	r30, 0xD9	; 217
     5da:	f0 e0       	ldi	r31, 0x00	; 0
     5dc:	80 81       	ld	r24, Z
     5de:	82 95       	swap	r24
     5e0:	8f 70       	andi	r24, 0x0F	; 15
     5e2:	88 2f       	mov	r24, r24
     5e4:	90 e0       	ldi	r25, 0x00	; 0
     5e6:	81 70       	andi	r24, 0x01	; 1
     5e8:	90 70       	andi	r25, 0x00	; 0
     5ea:	88 23       	and	r24, r24
     5ec:	a9 f7       	brne	.-22     	; 0x5d8 <CAN_InitRxMob+0x1a>
     5ee:	e9 ed       	ldi	r30, 0xD9	; 217
     5f0:	f0 e0       	ldi	r31, 0x00	; 0
     5f2:	80 81       	ld	r24, Z
     5f4:	86 95       	lsr	r24
     5f6:	86 95       	lsr	r24
     5f8:	86 95       	lsr	r24
     5fa:	88 2f       	mov	r24, r24
     5fc:	90 e0       	ldi	r25, 0x00	; 0
     5fe:	81 70       	andi	r24, 0x01	; 1
     600:	90 70       	andi	r25, 0x00	; 0
     602:	88 23       	and	r24, r24
     604:	49 f7       	brne	.-46     	; 0x5d8 <CAN_InitRxMob+0x1a>
     606:	1a 82       	std	Y+2, r1	; 0x02
     608:	40 c0       	rjmp	.+128    	; 0x68a <CAN_InitRxMob+0xcc>
     60a:	ed ee       	ldi	r30, 0xED	; 237
     60c:	f0 e0       	ldi	r31, 0x00	; 0
     60e:	8a 81       	ldd	r24, Y+2	; 0x02
     610:	82 95       	swap	r24
     612:	80 7f       	andi	r24, 0xF0	; 240
     614:	80 83       	st	Z, r24
     616:	ef ee       	ldi	r30, 0xEF	; 239
     618:	f0 e0       	ldi	r31, 0x00	; 0
     61a:	80 81       	ld	r24, Z
     61c:	82 95       	swap	r24
     61e:	86 95       	lsr	r24
     620:	86 95       	lsr	r24
     622:	83 70       	andi	r24, 0x03	; 3
     624:	88 23       	and	r24, r24
     626:	71 f5       	brne	.+92     	; 0x684 <CAN_InitRxMob+0xc6>
     628:	ef ee       	ldi	r30, 0xEF	; 239
     62a:	f0 e0       	ldi	r31, 0x00	; 0
     62c:	8f e0       	ldi	r24, 0x0F	; 15
     62e:	80 83       	st	Z, r24
     630:	e3 ef       	ldi	r30, 0xF3	; 243
     632:	f0 e0       	ldi	r31, 0x00	; 0
     634:	8b 81       	ldd	r24, Y+3	; 0x03
     636:	9c 81       	ldd	r25, Y+4	; 0x04
     638:	90 70       	andi	r25, 0x00	; 0
     63a:	96 95       	lsr	r25
     63c:	87 95       	ror	r24
     63e:	96 95       	lsr	r25
     640:	87 95       	ror	r24
     642:	96 95       	lsr	r25
     644:	87 95       	ror	r24
     646:	80 83       	st	Z, r24
     648:	e2 ef       	ldi	r30, 0xF2	; 242
     64a:	f0 e0       	ldi	r31, 0x00	; 0
     64c:	8b 81       	ldd	r24, Y+3	; 0x03
     64e:	82 95       	swap	r24
     650:	88 0f       	add	r24, r24
     652:	80 7e       	andi	r24, 0xE0	; 224
     654:	80 83       	st	Z, r24
     656:	e6 ef       	ldi	r30, 0xF6	; 246
     658:	f0 e0       	ldi	r31, 0x00	; 0
     65a:	80 ee       	ldi	r24, 0xE0	; 224
     65c:	80 83       	st	Z, r24
     65e:	e7 ef       	ldi	r30, 0xF7	; 247
     660:	f0 e0       	ldi	r31, 0x00	; 0
     662:	8f ef       	ldi	r24, 0xFF	; 255
     664:	80 83       	st	Z, r24
     666:	af ee       	ldi	r26, 0xEF	; 239
     668:	b0 e0       	ldi	r27, 0x00	; 0
     66a:	ef ee       	ldi	r30, 0xEF	; 239
     66c:	f0 e0       	ldi	r31, 0x00	; 0
     66e:	80 81       	ld	r24, Z
     670:	80 68       	ori	r24, 0x80	; 128
     672:	8c 93       	st	X, r24
     674:	78 94       	sei
     676:	ed ee       	ldi	r30, 0xED	; 237
     678:	f0 e0       	ldi	r31, 0x00	; 0
     67a:	89 81       	ldd	r24, Y+1	; 0x01
     67c:	80 83       	st	Z, r24
     67e:	81 e0       	ldi	r24, 0x01	; 1
     680:	8d 83       	std	Y+5, r24	; 0x05
     682:	0c c0       	rjmp	.+24     	; 0x69c <CAN_InitRxMob+0xde>
     684:	8a 81       	ldd	r24, Y+2	; 0x02
     686:	8f 5f       	subi	r24, 0xFF	; 255
     688:	8a 83       	std	Y+2, r24	; 0x02
     68a:	8a 81       	ldd	r24, Y+2	; 0x02
     68c:	8f 30       	cpi	r24, 0x0F	; 15
     68e:	08 f4       	brcc	.+2      	; 0x692 <CAN_InitRxMob+0xd4>
     690:	bc cf       	rjmp	.-136    	; 0x60a <CAN_InitRxMob+0x4c>
     692:	ed ee       	ldi	r30, 0xED	; 237
     694:	f0 e0       	ldi	r31, 0x00	; 0
     696:	89 81       	ldd	r24, Y+1	; 0x01
     698:	80 83       	st	Z, r24
     69a:	1d 82       	std	Y+5, r1	; 0x05
     69c:	8d 81       	ldd	r24, Y+5	; 0x05
     69e:	0f 90       	pop	r0
     6a0:	0f 90       	pop	r0
     6a2:	0f 90       	pop	r0
     6a4:	0f 90       	pop	r0
     6a6:	0f 90       	pop	r0
     6a8:	cf 91       	pop	r28
     6aa:	df 91       	pop	r29
     6ac:	08 95       	ret

000006ae <CAN_read>:
     6ae:	df 93       	push	r29
     6b0:	cf 93       	push	r28
     6b2:	00 d0       	rcall	.+0      	; 0x6b4 <CAN_read+0x6>
     6b4:	0f 92       	push	r0
     6b6:	cd b7       	in	r28, 0x3d	; 61
     6b8:	de b7       	in	r29, 0x3e	; 62
     6ba:	9b 83       	std	Y+3, r25	; 0x03
     6bc:	8a 83       	std	Y+2, r24	; 0x02
     6be:	80 91 08 01 	lds	r24, 0x0108
     6c2:	88 23       	and	r24, r24
     6c4:	e1 f3       	breq	.-8      	; 0x6be <CAN_read+0x10>
     6c6:	f8 94       	cli
     6c8:	19 82       	std	Y+1, r1	; 0x01
     6ca:	23 c0       	rjmp	.+70     	; 0x712 <CAN_read+0x64>
     6cc:	89 81       	ldd	r24, Y+1	; 0x01
     6ce:	68 2f       	mov	r22, r24
     6d0:	70 e0       	ldi	r23, 0x00	; 0
     6d2:	80 91 06 01 	lds	r24, 0x0106
     6d6:	28 2f       	mov	r18, r24
     6d8:	30 e0       	ldi	r19, 0x00	; 0
     6da:	89 81       	ldd	r24, Y+1	; 0x01
     6dc:	48 2f       	mov	r20, r24
     6de:	50 e0       	ldi	r21, 0x00	; 0
     6e0:	c9 01       	movw	r24, r18
     6e2:	88 0f       	add	r24, r24
     6e4:	99 1f       	adc	r25, r25
     6e6:	9c 01       	movw	r18, r24
     6e8:	22 0f       	add	r18, r18
     6ea:	33 1f       	adc	r19, r19
     6ec:	22 0f       	add	r18, r18
     6ee:	33 1f       	adc	r19, r19
     6f0:	82 0f       	add	r24, r18
     6f2:	93 1f       	adc	r25, r19
     6f4:	84 0f       	add	r24, r20
     6f6:	95 1f       	adc	r25, r21
     6f8:	fc 01       	movw	r30, r24
     6fa:	e7 5f       	subi	r30, 0xF7	; 247
     6fc:	fe 4f       	sbci	r31, 0xFE	; 254
     6fe:	20 81       	ld	r18, Z
     700:	8a 81       	ldd	r24, Y+2	; 0x02
     702:	9b 81       	ldd	r25, Y+3	; 0x03
     704:	fc 01       	movw	r30, r24
     706:	e6 0f       	add	r30, r22
     708:	f7 1f       	adc	r31, r23
     70a:	20 83       	st	Z, r18
     70c:	89 81       	ldd	r24, Y+1	; 0x01
     70e:	8f 5f       	subi	r24, 0xFF	; 255
     710:	89 83       	std	Y+1, r24	; 0x01
     712:	89 81       	ldd	r24, Y+1	; 0x01
     714:	88 30       	cpi	r24, 0x08	; 8
     716:	d0 f2       	brcs	.-76     	; 0x6cc <CAN_read+0x1e>
     718:	80 91 06 01 	lds	r24, 0x0106
     71c:	88 2f       	mov	r24, r24
     71e:	90 e0       	ldi	r25, 0x00	; 0
     720:	88 0f       	add	r24, r24
     722:	99 1f       	adc	r25, r25
     724:	9c 01       	movw	r18, r24
     726:	22 0f       	add	r18, r18
     728:	33 1f       	adc	r19, r19
     72a:	22 0f       	add	r18, r18
     72c:	33 1f       	adc	r19, r19
     72e:	82 0f       	add	r24, r18
     730:	93 1f       	adc	r25, r19
     732:	fc 01       	movw	r30, r24
     734:	ef 5e       	subi	r30, 0xEF	; 239
     736:	fe 4f       	sbci	r31, 0xFE	; 254
     738:	80 81       	ld	r24, Z
     73a:	91 81       	ldd	r25, Z+1	; 0x01
     73c:	ea 81       	ldd	r30, Y+2	; 0x02
     73e:	fb 81       	ldd	r31, Y+3	; 0x03
     740:	91 87       	std	Z+9, r25	; 0x09
     742:	80 87       	std	Z+8, r24	; 0x08
     744:	80 91 06 01 	lds	r24, 0x0106
     748:	8f 5f       	subi	r24, 0xFF	; 255
     74a:	80 93 06 01 	sts	0x0106, r24
     74e:	80 91 06 01 	lds	r24, 0x0106
     752:	82 33       	cpi	r24, 0x32	; 50
     754:	11 f4       	brne	.+4      	; 0x75a <CAN_read+0xac>
     756:	10 92 06 01 	sts	0x0106, r1
     75a:	80 91 08 01 	lds	r24, 0x0108
     75e:	81 50       	subi	r24, 0x01	; 1
     760:	80 93 08 01 	sts	0x0108, r24
     764:	78 94       	sei
     766:	0f 90       	pop	r0
     768:	0f 90       	pop	r0
     76a:	0f 90       	pop	r0
     76c:	cf 91       	pop	r28
     76e:	df 91       	pop	r29
     770:	08 95       	ret

00000772 <AX_UART_Init>:
     772:	df 93       	push	r29
     774:	cf 93       	push	r28
     776:	cd b7       	in	r28, 0x3d	; 61
     778:	de b7       	in	r29, 0x3e	; 62
     77a:	2e 97       	sbiw	r28, 0x0e	; 14
     77c:	0f b6       	in	r0, 0x3f	; 63
     77e:	f8 94       	cli
     780:	de bf       	out	0x3e, r29	; 62
     782:	0f be       	out	0x3f, r0	; 63
     784:	cd bf       	out	0x3d, r28	; 61
     786:	ad e2       	ldi	r26, 0x2D	; 45
     788:	b0 e0       	ldi	r27, 0x00	; 0
     78a:	ed e2       	ldi	r30, 0x2D	; 45
     78c:	f0 e0       	ldi	r31, 0x00	; 0
     78e:	80 81       	ld	r24, Z
     790:	8c 7f       	andi	r24, 0xFC	; 252
     792:	8c 93       	st	X, r24
     794:	e0 ec       	ldi	r30, 0xC0	; 192
     796:	f0 e0       	ldi	r31, 0x00	; 0
     798:	10 82       	st	Z, r1
     79a:	e1 ec       	ldi	r30, 0xC1	; 193
     79c:	f0 e0       	ldi	r31, 0x00	; 0
     79e:	88 e1       	ldi	r24, 0x18	; 24
     7a0:	80 83       	st	Z, r24
     7a2:	e2 ec       	ldi	r30, 0xC2	; 194
     7a4:	f0 e0       	ldi	r31, 0x00	; 0
     7a6:	86 e0       	ldi	r24, 0x06	; 6
     7a8:	80 83       	st	Z, r24
     7aa:	e5 ec       	ldi	r30, 0xC5	; 197
     7ac:	f0 e0       	ldi	r31, 0x00	; 0
     7ae:	10 82       	st	Z, r1
     7b0:	e4 ec       	ldi	r30, 0xC4	; 196
     7b2:	f0 e0       	ldi	r31, 0x00	; 0
     7b4:	85 e0       	ldi	r24, 0x05	; 5
     7b6:	80 83       	st	Z, r24
     7b8:	80 e0       	ldi	r24, 0x00	; 0
     7ba:	90 e0       	ldi	r25, 0x00	; 0
     7bc:	a8 ec       	ldi	r26, 0xC8	; 200
     7be:	b2 e4       	ldi	r27, 0x42	; 66
     7c0:	8b 87       	std	Y+11, r24	; 0x0b
     7c2:	9c 87       	std	Y+12, r25	; 0x0c
     7c4:	ad 87       	std	Y+13, r26	; 0x0d
     7c6:	be 87       	std	Y+14, r27	; 0x0e
     7c8:	6b 85       	ldd	r22, Y+11	; 0x0b
     7ca:	7c 85       	ldd	r23, Y+12	; 0x0c
     7cc:	8d 85       	ldd	r24, Y+13	; 0x0d
     7ce:	9e 85       	ldd	r25, Y+14	; 0x0e
     7d0:	2d ec       	ldi	r18, 0xCD	; 205
     7d2:	3c ec       	ldi	r19, 0xCC	; 204
     7d4:	4c e2       	ldi	r20, 0x2C	; 44
     7d6:	55 e4       	ldi	r21, 0x45	; 69
     7d8:	20 d6       	rcall	.+3136   	; 0x141a <__mulsf3>
     7da:	dc 01       	movw	r26, r24
     7dc:	cb 01       	movw	r24, r22
     7de:	8f 83       	std	Y+7, r24	; 0x07
     7e0:	98 87       	std	Y+8, r25	; 0x08
     7e2:	a9 87       	std	Y+9, r26	; 0x09
     7e4:	ba 87       	std	Y+10, r27	; 0x0a
     7e6:	6f 81       	ldd	r22, Y+7	; 0x07
     7e8:	78 85       	ldd	r23, Y+8	; 0x08
     7ea:	89 85       	ldd	r24, Y+9	; 0x09
     7ec:	9a 85       	ldd	r25, Y+10	; 0x0a
     7ee:	20 e0       	ldi	r18, 0x00	; 0
     7f0:	30 e0       	ldi	r19, 0x00	; 0
     7f2:	40 e8       	ldi	r20, 0x80	; 128
     7f4:	5f e3       	ldi	r21, 0x3F	; 63
     7f6:	c3 d4       	rcall	.+2438   	; 0x117e <__cmpsf2>
     7f8:	88 23       	and	r24, r24
     7fa:	2c f4       	brge	.+10     	; 0x806 <AX_UART_Init+0x94>
     7fc:	81 e0       	ldi	r24, 0x01	; 1
     7fe:	90 e0       	ldi	r25, 0x00	; 0
     800:	9e 83       	std	Y+6, r25	; 0x06
     802:	8d 83       	std	Y+5, r24	; 0x05
     804:	3b c0       	rjmp	.+118    	; 0x87c <AX_UART_Init+0x10a>
     806:	6f 81       	ldd	r22, Y+7	; 0x07
     808:	78 85       	ldd	r23, Y+8	; 0x08
     80a:	89 85       	ldd	r24, Y+9	; 0x09
     80c:	9a 85       	ldd	r25, Y+10	; 0x0a
     80e:	20 e0       	ldi	r18, 0x00	; 0
     810:	3f ef       	ldi	r19, 0xFF	; 255
     812:	4f e7       	ldi	r20, 0x7F	; 127
     814:	57 e4       	ldi	r21, 0x47	; 71
     816:	fd d5       	rcall	.+3066   	; 0x1412 <__gesf2>
     818:	18 16       	cp	r1, r24
     81a:	3c f5       	brge	.+78     	; 0x86a <AX_UART_Init+0xf8>
     81c:	6b 85       	ldd	r22, Y+11	; 0x0b
     81e:	7c 85       	ldd	r23, Y+12	; 0x0c
     820:	8d 85       	ldd	r24, Y+13	; 0x0d
     822:	9e 85       	ldd	r25, Y+14	; 0x0e
     824:	20 e0       	ldi	r18, 0x00	; 0
     826:	30 e0       	ldi	r19, 0x00	; 0
     828:	40 e2       	ldi	r20, 0x20	; 32
     82a:	51 e4       	ldi	r21, 0x41	; 65
     82c:	f6 d5       	rcall	.+3052   	; 0x141a <__mulsf3>
     82e:	dc 01       	movw	r26, r24
     830:	cb 01       	movw	r24, r22
     832:	bc 01       	movw	r22, r24
     834:	cd 01       	movw	r24, r26
     836:	0f d5       	rcall	.+2590   	; 0x1256 <__fixunssfsi>
     838:	dc 01       	movw	r26, r24
     83a:	cb 01       	movw	r24, r22
     83c:	9e 83       	std	Y+6, r25	; 0x06
     83e:	8d 83       	std	Y+5, r24	; 0x05
     840:	0f c0       	rjmp	.+30     	; 0x860 <AX_UART_Init+0xee>
     842:	84 e1       	ldi	r24, 0x14	; 20
     844:	91 e0       	ldi	r25, 0x01	; 1
     846:	9c 83       	std	Y+4, r25	; 0x04
     848:	8b 83       	std	Y+3, r24	; 0x03
     84a:	8b 81       	ldd	r24, Y+3	; 0x03
     84c:	9c 81       	ldd	r25, Y+4	; 0x04
     84e:	01 97       	sbiw	r24, 0x01	; 1
     850:	f1 f7       	brne	.-4      	; 0x84e <AX_UART_Init+0xdc>
     852:	9c 83       	std	Y+4, r25	; 0x04
     854:	8b 83       	std	Y+3, r24	; 0x03
     856:	8d 81       	ldd	r24, Y+5	; 0x05
     858:	9e 81       	ldd	r25, Y+6	; 0x06
     85a:	01 97       	sbiw	r24, 0x01	; 1
     85c:	9e 83       	std	Y+6, r25	; 0x06
     85e:	8d 83       	std	Y+5, r24	; 0x05
     860:	8d 81       	ldd	r24, Y+5	; 0x05
     862:	9e 81       	ldd	r25, Y+6	; 0x06
     864:	00 97       	sbiw	r24, 0x00	; 0
     866:	69 f7       	brne	.-38     	; 0x842 <AX_UART_Init+0xd0>
     868:	13 c0       	rjmp	.+38     	; 0x890 <AX_UART_Init+0x11e>
     86a:	6f 81       	ldd	r22, Y+7	; 0x07
     86c:	78 85       	ldd	r23, Y+8	; 0x08
     86e:	89 85       	ldd	r24, Y+9	; 0x09
     870:	9a 85       	ldd	r25, Y+10	; 0x0a
     872:	f1 d4       	rcall	.+2530   	; 0x1256 <__fixunssfsi>
     874:	dc 01       	movw	r26, r24
     876:	cb 01       	movw	r24, r22
     878:	9e 83       	std	Y+6, r25	; 0x06
     87a:	8d 83       	std	Y+5, r24	; 0x05
     87c:	8d 81       	ldd	r24, Y+5	; 0x05
     87e:	9e 81       	ldd	r25, Y+6	; 0x06
     880:	9a 83       	std	Y+2, r25	; 0x02
     882:	89 83       	std	Y+1, r24	; 0x01
     884:	89 81       	ldd	r24, Y+1	; 0x01
     886:	9a 81       	ldd	r25, Y+2	; 0x02
     888:	01 97       	sbiw	r24, 0x01	; 1
     88a:	f1 f7       	brne	.-4      	; 0x888 <AX_UART_Init+0x116>
     88c:	9a 83       	std	Y+2, r25	; 0x02
     88e:	89 83       	std	Y+1, r24	; 0x01
     890:	2e 96       	adiw	r28, 0x0e	; 14
     892:	0f b6       	in	r0, 0x3f	; 63
     894:	f8 94       	cli
     896:	de bf       	out	0x3e, r29	; 62
     898:	0f be       	out	0x3f, r0	; 63
     89a:	cd bf       	out	0x3d, r28	; 61
     89c:	cf 91       	pop	r28
     89e:	df 91       	pop	r29
     8a0:	08 95       	ret

000008a2 <AX_SendChar>:
     8a2:	df 93       	push	r29
     8a4:	cf 93       	push	r28
     8a6:	0f 92       	push	r0
     8a8:	cd b7       	in	r28, 0x3d	; 61
     8aa:	de b7       	in	r29, 0x3e	; 62
     8ac:	89 83       	std	Y+1, r24	; 0x01
     8ae:	e0 ec       	ldi	r30, 0xC0	; 192
     8b0:	f0 e0       	ldi	r31, 0x00	; 0
     8b2:	80 81       	ld	r24, Z
     8b4:	88 2f       	mov	r24, r24
     8b6:	90 e0       	ldi	r25, 0x00	; 0
     8b8:	80 72       	andi	r24, 0x20	; 32
     8ba:	90 70       	andi	r25, 0x00	; 0
     8bc:	00 97       	sbiw	r24, 0x00	; 0
     8be:	b9 f3       	breq	.-18     	; 0x8ae <AX_SendChar+0xc>
     8c0:	e6 ec       	ldi	r30, 0xC6	; 198
     8c2:	f0 e0       	ldi	r31, 0x00	; 0
     8c4:	89 81       	ldd	r24, Y+1	; 0x01
     8c6:	80 83       	st	Z, r24
     8c8:	0f 90       	pop	r0
     8ca:	cf 91       	pop	r28
     8cc:	df 91       	pop	r29
     8ce:	08 95       	ret

000008d0 <AX_StopTransmitter>:
     8d0:	df 93       	push	r29
     8d2:	cf 93       	push	r28
     8d4:	cd b7       	in	r28, 0x3d	; 61
     8d6:	de b7       	in	r29, 0x3e	; 62
     8d8:	e0 ec       	ldi	r30, 0xC0	; 192
     8da:	f0 e0       	ldi	r31, 0x00	; 0
     8dc:	80 81       	ld	r24, Z
     8de:	88 2f       	mov	r24, r24
     8e0:	90 e0       	ldi	r25, 0x00	; 0
     8e2:	80 74       	andi	r24, 0x40	; 64
     8e4:	90 70       	andi	r25, 0x00	; 0
     8e6:	00 97       	sbiw	r24, 0x00	; 0
     8e8:	b9 f3       	breq	.-18     	; 0x8d8 <AX_StopTransmitter+0x8>
     8ea:	a1 ec       	ldi	r26, 0xC1	; 193
     8ec:	b0 e0       	ldi	r27, 0x00	; 0
     8ee:	e1 ec       	ldi	r30, 0xC1	; 193
     8f0:	f0 e0       	ldi	r31, 0x00	; 0
     8f2:	80 81       	ld	r24, Z
     8f4:	87 7f       	andi	r24, 0xF7	; 247
     8f6:	8c 93       	st	X, r24
     8f8:	a0 ec       	ldi	r26, 0xC0	; 192
     8fa:	b0 e0       	ldi	r27, 0x00	; 0
     8fc:	e0 ec       	ldi	r30, 0xC0	; 192
     8fe:	f0 e0       	ldi	r31, 0x00	; 0
     900:	80 81       	ld	r24, Z
     902:	80 64       	ori	r24, 0x40	; 64
     904:	8c 93       	st	X, r24
     906:	cf 91       	pop	r28
     908:	df 91       	pop	r29
     90a:	08 95       	ret

0000090c <AX_ReleaseTransmitter>:
     90c:	df 93       	push	r29
     90e:	cf 93       	push	r28
     910:	cd b7       	in	r28, 0x3d	; 61
     912:	de b7       	in	r29, 0x3e	; 62
     914:	a1 ec       	ldi	r26, 0xC1	; 193
     916:	b0 e0       	ldi	r27, 0x00	; 0
     918:	e1 ec       	ldi	r30, 0xC1	; 193
     91a:	f0 e0       	ldi	r31, 0x00	; 0
     91c:	80 81       	ld	r24, Z
     91e:	88 60       	ori	r24, 0x08	; 8
     920:	8c 93       	st	X, r24
     922:	cf 91       	pop	r28
     924:	df 91       	pop	r29
     926:	08 95       	ret

00000928 <AX_StopReceiver>:
     928:	df 93       	push	r29
     92a:	cf 93       	push	r28
     92c:	cd b7       	in	r28, 0x3d	; 61
     92e:	de b7       	in	r29, 0x3e	; 62
     930:	a1 ec       	ldi	r26, 0xC1	; 193
     932:	b0 e0       	ldi	r27, 0x00	; 0
     934:	e1 ec       	ldi	r30, 0xC1	; 193
     936:	f0 e0       	ldi	r31, 0x00	; 0
     938:	80 81       	ld	r24, Z
     93a:	8f 7e       	andi	r24, 0xEF	; 239
     93c:	8c 93       	st	X, r24
     93e:	cf 91       	pop	r28
     940:	df 91       	pop	r29
     942:	08 95       	ret

00000944 <AX_ReleaseReceiver>:
     944:	df 93       	push	r29
     946:	cf 93       	push	r28
     948:	cd b7       	in	r28, 0x3d	; 61
     94a:	de b7       	in	r29, 0x3e	; 62
     94c:	a1 ec       	ldi	r26, 0xC1	; 193
     94e:	b0 e0       	ldi	r27, 0x00	; 0
     950:	e1 ec       	ldi	r30, 0xC1	; 193
     952:	f0 e0       	ldi	r31, 0x00	; 0
     954:	80 81       	ld	r24, Z
     956:	80 61       	ori	r24, 0x10	; 16
     958:	8c 93       	st	X, r24
     95a:	cf 91       	pop	r28
     95c:	df 91       	pop	r29
     95e:	08 95       	ret

00000960 <AX_SetAngle>:
     960:	df 93       	push	r29
     962:	cf 93       	push	r28
     964:	cd b7       	in	r28, 0x3d	; 61
     966:	de b7       	in	r29, 0x3e	; 62
     968:	6a 97       	sbiw	r28, 0x1a	; 26
     96a:	0f b6       	in	r0, 0x3f	; 63
     96c:	f8 94       	cli
     96e:	de bf       	out	0x3e, r29	; 62
     970:	0f be       	out	0x3f, r0	; 63
     972:	cd bf       	out	0x3d, r28	; 61
     974:	9e 8b       	std	Y+22, r25	; 0x16
     976:	8d 8b       	std	Y+21, r24	; 0x15
     978:	78 8f       	std	Y+24, r23	; 0x18
     97a:	6f 8b       	std	Y+23, r22	; 0x17
     97c:	49 8f       	std	Y+25, r20	; 0x19
     97e:	2a 8f       	std	Y+26, r18	; 0x1a
     980:	8d 89       	ldd	r24, Y+21	; 0x15
     982:	9e 89       	ldd	r25, Y+22	; 0x16
     984:	cc 01       	movw	r24, r24
     986:	a0 e0       	ldi	r26, 0x00	; 0
     988:	b0 e0       	ldi	r27, 0x00	; 0
     98a:	bc 01       	movw	r22, r24
     98c:	cd 01       	movw	r24, r26
     98e:	8f d4       	rcall	.+2334   	; 0x12ae <__floatunsisf>
     990:	dc 01       	movw	r26, r24
     992:	cb 01       	movw	r24, r22
     994:	bc 01       	movw	r22, r24
     996:	cd 01       	movw	r24, r26
     998:	20 e0       	ldi	r18, 0x00	; 0
     99a:	30 e0       	ldi	r19, 0x00	; 0
     99c:	46 e9       	ldi	r20, 0x96	; 150
     99e:	53 e4       	ldi	r21, 0x43	; 67
     9a0:	f2 d3       	rcall	.+2020   	; 0x1186 <__divsf3>
     9a2:	dc 01       	movw	r26, r24
     9a4:	cb 01       	movw	r24, r22
     9a6:	bc 01       	movw	r22, r24
     9a8:	cd 01       	movw	r24, r26
     9aa:	20 e0       	ldi	r18, 0x00	; 0
     9ac:	30 ec       	ldi	r19, 0xC0	; 192
     9ae:	4f e7       	ldi	r20, 0x7F	; 127
     9b0:	54 e4       	ldi	r21, 0x44	; 68
     9b2:	33 d5       	rcall	.+2662   	; 0x141a <__mulsf3>
     9b4:	dc 01       	movw	r26, r24
     9b6:	cb 01       	movw	r24, r22
     9b8:	bc 01       	movw	r22, r24
     9ba:	cd 01       	movw	r24, r26
     9bc:	4c d4       	rcall	.+2200   	; 0x1256 <__fixunssfsi>
     9be:	dc 01       	movw	r26, r24
     9c0:	cb 01       	movw	r24, r22
     9c2:	9e 8b       	std	Y+22, r25	; 0x16
     9c4:	8d 8b       	std	Y+21, r24	; 0x15
     9c6:	8d 89       	ldd	r24, Y+21	; 0x15
     9c8:	9e 89       	ldd	r25, Y+22	; 0x16
     9ca:	89 2f       	mov	r24, r25
     9cc:	99 27       	eor	r25, r25
     9ce:	8c 8b       	std	Y+20, r24	; 0x14
     9d0:	8d 89       	ldd	r24, Y+21	; 0x15
     9d2:	8b 8b       	std	Y+19, r24	; 0x13
     9d4:	89 8d       	ldd	r24, Y+25	; 0x19
     9d6:	88 2f       	mov	r24, r24
     9d8:	90 e0       	ldi	r25, 0x00	; 0
     9da:	98 2f       	mov	r25, r24
     9dc:	88 27       	eor	r24, r24
     9de:	99 0f       	add	r25, r25
     9e0:	99 0f       	add	r25, r25
     9e2:	9c 01       	movw	r18, r24
     9e4:	8f 89       	ldd	r24, Y+23	; 0x17
     9e6:	98 8d       	ldd	r25, Y+24	; 0x18
     9e8:	82 2b       	or	r24, r18
     9ea:	93 2b       	or	r25, r19
     9ec:	98 8f       	std	Y+24, r25	; 0x18
     9ee:	8f 8b       	std	Y+23, r24	; 0x17
     9f0:	8f 89       	ldd	r24, Y+23	; 0x17
     9f2:	98 8d       	ldd	r25, Y+24	; 0x18
     9f4:	89 2f       	mov	r24, r25
     9f6:	99 27       	eor	r25, r25
     9f8:	8a 8b       	std	Y+18, r24	; 0x12
     9fa:	8f 89       	ldd	r24, Y+23	; 0x17
     9fc:	89 8b       	std	Y+17, r24	; 0x11
     9fe:	8a 8d       	ldd	r24, Y+26	; 0x1a
     a00:	88 2f       	mov	r24, r24
     a02:	90 e0       	ldi	r25, 0x00	; 0
     a04:	9c 01       	movw	r18, r24
     a06:	28 5d       	subi	r18, 0xD8	; 216
     a08:	3f 4f       	sbci	r19, 0xFF	; 255
     a0a:	8a 89       	ldd	r24, Y+18	; 0x12
     a0c:	88 2f       	mov	r24, r24
     a0e:	90 e0       	ldi	r25, 0x00	; 0
     a10:	28 0f       	add	r18, r24
     a12:	39 1f       	adc	r19, r25
     a14:	89 89       	ldd	r24, Y+17	; 0x11
     a16:	88 2f       	mov	r24, r24
     a18:	90 e0       	ldi	r25, 0x00	; 0
     a1a:	28 0f       	add	r18, r24
     a1c:	39 1f       	adc	r19, r25
     a1e:	8c 89       	ldd	r24, Y+20	; 0x14
     a20:	88 2f       	mov	r24, r24
     a22:	90 e0       	ldi	r25, 0x00	; 0
     a24:	28 0f       	add	r18, r24
     a26:	39 1f       	adc	r19, r25
     a28:	8b 89       	ldd	r24, Y+19	; 0x13
     a2a:	88 2f       	mov	r24, r24
     a2c:	90 e0       	ldi	r25, 0x00	; 0
     a2e:	82 0f       	add	r24, r18
     a30:	93 1f       	adc	r25, r19
     a32:	80 95       	com	r24
     a34:	90 95       	com	r25
     a36:	98 8b       	std	Y+16, r25	; 0x10
     a38:	8f 87       	std	Y+15, r24	; 0x0f
     a3a:	76 df       	rcall	.-276    	; 0x928 <AX_StopReceiver>
     a3c:	8f ef       	ldi	r24, 0xFF	; 255
     a3e:	31 df       	rcall	.-414    	; 0x8a2 <AX_SendChar>
     a40:	8f ef       	ldi	r24, 0xFF	; 255
     a42:	2f df       	rcall	.-418    	; 0x8a2 <AX_SendChar>
     a44:	8a 8d       	ldd	r24, Y+26	; 0x1a
     a46:	2d df       	rcall	.-422    	; 0x8a2 <AX_SendChar>
     a48:	87 e0       	ldi	r24, 0x07	; 7
     a4a:	2b df       	rcall	.-426    	; 0x8a2 <AX_SendChar>
     a4c:	83 e0       	ldi	r24, 0x03	; 3
     a4e:	29 df       	rcall	.-430    	; 0x8a2 <AX_SendChar>
     a50:	8e e1       	ldi	r24, 0x1E	; 30
     a52:	27 df       	rcall	.-434    	; 0x8a2 <AX_SendChar>
     a54:	8b 89       	ldd	r24, Y+19	; 0x13
     a56:	25 df       	rcall	.-438    	; 0x8a2 <AX_SendChar>
     a58:	8c 89       	ldd	r24, Y+20	; 0x14
     a5a:	23 df       	rcall	.-442    	; 0x8a2 <AX_SendChar>
     a5c:	89 89       	ldd	r24, Y+17	; 0x11
     a5e:	21 df       	rcall	.-446    	; 0x8a2 <AX_SendChar>
     a60:	8a 89       	ldd	r24, Y+18	; 0x12
     a62:	1f df       	rcall	.-450    	; 0x8a2 <AX_SendChar>
     a64:	8f 85       	ldd	r24, Y+15	; 0x0f
     a66:	1d df       	rcall	.-454    	; 0x8a2 <AX_SendChar>
     a68:	33 df       	rcall	.-410    	; 0x8d0 <AX_StopTransmitter>
     a6a:	6c df       	rcall	.-296    	; 0x944 <AX_ReleaseReceiver>
     a6c:	80 e0       	ldi	r24, 0x00	; 0
     a6e:	90 e0       	ldi	r25, 0x00	; 0
     a70:	a8 e4       	ldi	r26, 0x48	; 72
     a72:	b2 e4       	ldi	r27, 0x42	; 66
     a74:	8b 87       	std	Y+11, r24	; 0x0b
     a76:	9c 87       	std	Y+12, r25	; 0x0c
     a78:	ad 87       	std	Y+13, r26	; 0x0d
     a7a:	be 87       	std	Y+14, r27	; 0x0e
     a7c:	6b 85       	ldd	r22, Y+11	; 0x0b
     a7e:	7c 85       	ldd	r23, Y+12	; 0x0c
     a80:	8d 85       	ldd	r24, Y+13	; 0x0d
     a82:	9e 85       	ldd	r25, Y+14	; 0x0e
     a84:	2d ec       	ldi	r18, 0xCD	; 205
     a86:	3c ec       	ldi	r19, 0xCC	; 204
     a88:	4c e2       	ldi	r20, 0x2C	; 44
     a8a:	55 e4       	ldi	r21, 0x45	; 69
     a8c:	c6 d4       	rcall	.+2444   	; 0x141a <__mulsf3>
     a8e:	dc 01       	movw	r26, r24
     a90:	cb 01       	movw	r24, r22
     a92:	8f 83       	std	Y+7, r24	; 0x07
     a94:	98 87       	std	Y+8, r25	; 0x08
     a96:	a9 87       	std	Y+9, r26	; 0x09
     a98:	ba 87       	std	Y+10, r27	; 0x0a
     a9a:	6f 81       	ldd	r22, Y+7	; 0x07
     a9c:	78 85       	ldd	r23, Y+8	; 0x08
     a9e:	89 85       	ldd	r24, Y+9	; 0x09
     aa0:	9a 85       	ldd	r25, Y+10	; 0x0a
     aa2:	20 e0       	ldi	r18, 0x00	; 0
     aa4:	30 e0       	ldi	r19, 0x00	; 0
     aa6:	40 e8       	ldi	r20, 0x80	; 128
     aa8:	5f e3       	ldi	r21, 0x3F	; 63
     aaa:	69 d3       	rcall	.+1746   	; 0x117e <__cmpsf2>
     aac:	88 23       	and	r24, r24
     aae:	2c f4       	brge	.+10     	; 0xaba <AX_SetAngle+0x15a>
     ab0:	81 e0       	ldi	r24, 0x01	; 1
     ab2:	90 e0       	ldi	r25, 0x00	; 0
     ab4:	9e 83       	std	Y+6, r25	; 0x06
     ab6:	8d 83       	std	Y+5, r24	; 0x05
     ab8:	3b c0       	rjmp	.+118    	; 0xb30 <AX_SetAngle+0x1d0>
     aba:	6f 81       	ldd	r22, Y+7	; 0x07
     abc:	78 85       	ldd	r23, Y+8	; 0x08
     abe:	89 85       	ldd	r24, Y+9	; 0x09
     ac0:	9a 85       	ldd	r25, Y+10	; 0x0a
     ac2:	20 e0       	ldi	r18, 0x00	; 0
     ac4:	3f ef       	ldi	r19, 0xFF	; 255
     ac6:	4f e7       	ldi	r20, 0x7F	; 127
     ac8:	57 e4       	ldi	r21, 0x47	; 71
     aca:	a3 d4       	rcall	.+2374   	; 0x1412 <__gesf2>
     acc:	18 16       	cp	r1, r24
     ace:	3c f5       	brge	.+78     	; 0xb1e <AX_SetAngle+0x1be>
     ad0:	6b 85       	ldd	r22, Y+11	; 0x0b
     ad2:	7c 85       	ldd	r23, Y+12	; 0x0c
     ad4:	8d 85       	ldd	r24, Y+13	; 0x0d
     ad6:	9e 85       	ldd	r25, Y+14	; 0x0e
     ad8:	20 e0       	ldi	r18, 0x00	; 0
     ada:	30 e0       	ldi	r19, 0x00	; 0
     adc:	40 e2       	ldi	r20, 0x20	; 32
     ade:	51 e4       	ldi	r21, 0x41	; 65
     ae0:	9c d4       	rcall	.+2360   	; 0x141a <__mulsf3>
     ae2:	dc 01       	movw	r26, r24
     ae4:	cb 01       	movw	r24, r22
     ae6:	bc 01       	movw	r22, r24
     ae8:	cd 01       	movw	r24, r26
     aea:	b5 d3       	rcall	.+1898   	; 0x1256 <__fixunssfsi>
     aec:	dc 01       	movw	r26, r24
     aee:	cb 01       	movw	r24, r22
     af0:	9e 83       	std	Y+6, r25	; 0x06
     af2:	8d 83       	std	Y+5, r24	; 0x05
     af4:	0f c0       	rjmp	.+30     	; 0xb14 <AX_SetAngle+0x1b4>
     af6:	84 e1       	ldi	r24, 0x14	; 20
     af8:	91 e0       	ldi	r25, 0x01	; 1
     afa:	9c 83       	std	Y+4, r25	; 0x04
     afc:	8b 83       	std	Y+3, r24	; 0x03
     afe:	8b 81       	ldd	r24, Y+3	; 0x03
     b00:	9c 81       	ldd	r25, Y+4	; 0x04
     b02:	01 97       	sbiw	r24, 0x01	; 1
     b04:	f1 f7       	brne	.-4      	; 0xb02 <AX_SetAngle+0x1a2>
     b06:	9c 83       	std	Y+4, r25	; 0x04
     b08:	8b 83       	std	Y+3, r24	; 0x03
     b0a:	8d 81       	ldd	r24, Y+5	; 0x05
     b0c:	9e 81       	ldd	r25, Y+6	; 0x06
     b0e:	01 97       	sbiw	r24, 0x01	; 1
     b10:	9e 83       	std	Y+6, r25	; 0x06
     b12:	8d 83       	std	Y+5, r24	; 0x05
     b14:	8d 81       	ldd	r24, Y+5	; 0x05
     b16:	9e 81       	ldd	r25, Y+6	; 0x06
     b18:	00 97       	sbiw	r24, 0x00	; 0
     b1a:	69 f7       	brne	.-38     	; 0xaf6 <AX_SetAngle+0x196>
     b1c:	13 c0       	rjmp	.+38     	; 0xb44 <AX_SetAngle+0x1e4>
     b1e:	6f 81       	ldd	r22, Y+7	; 0x07
     b20:	78 85       	ldd	r23, Y+8	; 0x08
     b22:	89 85       	ldd	r24, Y+9	; 0x09
     b24:	9a 85       	ldd	r25, Y+10	; 0x0a
     b26:	97 d3       	rcall	.+1838   	; 0x1256 <__fixunssfsi>
     b28:	dc 01       	movw	r26, r24
     b2a:	cb 01       	movw	r24, r22
     b2c:	9e 83       	std	Y+6, r25	; 0x06
     b2e:	8d 83       	std	Y+5, r24	; 0x05
     b30:	8d 81       	ldd	r24, Y+5	; 0x05
     b32:	9e 81       	ldd	r25, Y+6	; 0x06
     b34:	9a 83       	std	Y+2, r25	; 0x02
     b36:	89 83       	std	Y+1, r24	; 0x01
     b38:	89 81       	ldd	r24, Y+1	; 0x01
     b3a:	9a 81       	ldd	r25, Y+2	; 0x02
     b3c:	01 97       	sbiw	r24, 0x01	; 1
     b3e:	f1 f7       	brne	.-4      	; 0xb3c <AX_SetAngle+0x1dc>
     b40:	9a 83       	std	Y+2, r25	; 0x02
     b42:	89 83       	std	Y+1, r24	; 0x01
     b44:	e3 de       	rcall	.-570    	; 0x90c <AX_ReleaseTransmitter>
     b46:	6a 96       	adiw	r28, 0x1a	; 26
     b48:	0f b6       	in	r0, 0x3f	; 63
     b4a:	f8 94       	cli
     b4c:	de bf       	out	0x3e, r29	; 62
     b4e:	0f be       	out	0x3f, r0	; 63
     b50:	cd bf       	out	0x3d, r28	; 61
     b52:	cf 91       	pop	r28
     b54:	df 91       	pop	r29
     b56:	08 95       	ret

00000b58 <main>:
     b58:	0f 93       	push	r16
     b5a:	1f 93       	push	r17
     b5c:	df 93       	push	r29
     b5e:	cf 93       	push	r28
     b60:	cd b7       	in	r28, 0x3d	; 61
     b62:	de b7       	in	r29, 0x3e	; 62
     b64:	68 97       	sbiw	r28, 0x18	; 24
     b66:	0f b6       	in	r0, 0x3f	; 63
     b68:	f8 94       	cli
     b6a:	de bf       	out	0x3e, r29	; 62
     b6c:	0f be       	out	0x3f, r0	; 63
     b6e:	cd bf       	out	0x3d, r28	; 61
     b70:	00 de       	rcall	.-1024   	; 0x772 <AX_UART_Init>
     b72:	c1 dc       	rcall	.-1662   	; 0x4f6 <CAN_Init>
     b74:	84 ed       	ldi	r24, 0xD4	; 212
     b76:	90 e0       	ldi	r25, 0x00	; 0
     b78:	22 dd       	rcall	.-1468   	; 0x5be <CAN_InitRxMob>
     b7a:	6e d2       	rcall	.+1244   	; 0x1058 <systemInit>
     b7c:	80 e0       	ldi	r24, 0x00	; 0
     b7e:	90 e0       	ldi	r25, 0x00	; 0
     b80:	aa e7       	ldi	r26, 0x7A	; 122
     b82:	b4 e4       	ldi	r27, 0x44	; 68
     b84:	8b 87       	std	Y+11, r24	; 0x0b
     b86:	9c 87       	std	Y+12, r25	; 0x0c
     b88:	ad 87       	std	Y+13, r26	; 0x0d
     b8a:	be 87       	std	Y+14, r27	; 0x0e
     b8c:	6b 85       	ldd	r22, Y+11	; 0x0b
     b8e:	7c 85       	ldd	r23, Y+12	; 0x0c
     b90:	8d 85       	ldd	r24, Y+13	; 0x0d
     b92:	9e 85       	ldd	r25, Y+14	; 0x0e
     b94:	2d ec       	ldi	r18, 0xCD	; 205
     b96:	3c ec       	ldi	r19, 0xCC	; 204
     b98:	4c e2       	ldi	r20, 0x2C	; 44
     b9a:	55 e4       	ldi	r21, 0x45	; 69
     b9c:	3e d4       	rcall	.+2172   	; 0x141a <__mulsf3>
     b9e:	dc 01       	movw	r26, r24
     ba0:	cb 01       	movw	r24, r22
     ba2:	8f 83       	std	Y+7, r24	; 0x07
     ba4:	98 87       	std	Y+8, r25	; 0x08
     ba6:	a9 87       	std	Y+9, r26	; 0x09
     ba8:	ba 87       	std	Y+10, r27	; 0x0a
     baa:	6f 81       	ldd	r22, Y+7	; 0x07
     bac:	78 85       	ldd	r23, Y+8	; 0x08
     bae:	89 85       	ldd	r24, Y+9	; 0x09
     bb0:	9a 85       	ldd	r25, Y+10	; 0x0a
     bb2:	20 e0       	ldi	r18, 0x00	; 0
     bb4:	30 e0       	ldi	r19, 0x00	; 0
     bb6:	40 e8       	ldi	r20, 0x80	; 128
     bb8:	5f e3       	ldi	r21, 0x3F	; 63
     bba:	e1 d2       	rcall	.+1474   	; 0x117e <__cmpsf2>
     bbc:	88 23       	and	r24, r24
     bbe:	2c f4       	brge	.+10     	; 0xbca <main+0x72>
     bc0:	81 e0       	ldi	r24, 0x01	; 1
     bc2:	90 e0       	ldi	r25, 0x00	; 0
     bc4:	9e 83       	std	Y+6, r25	; 0x06
     bc6:	8d 83       	std	Y+5, r24	; 0x05
     bc8:	3b c0       	rjmp	.+118    	; 0xc40 <main+0xe8>
     bca:	6f 81       	ldd	r22, Y+7	; 0x07
     bcc:	78 85       	ldd	r23, Y+8	; 0x08
     bce:	89 85       	ldd	r24, Y+9	; 0x09
     bd0:	9a 85       	ldd	r25, Y+10	; 0x0a
     bd2:	20 e0       	ldi	r18, 0x00	; 0
     bd4:	3f ef       	ldi	r19, 0xFF	; 255
     bd6:	4f e7       	ldi	r20, 0x7F	; 127
     bd8:	57 e4       	ldi	r21, 0x47	; 71
     bda:	1b d4       	rcall	.+2102   	; 0x1412 <__gesf2>
     bdc:	18 16       	cp	r1, r24
     bde:	3c f5       	brge	.+78     	; 0xc2e <main+0xd6>
     be0:	6b 85       	ldd	r22, Y+11	; 0x0b
     be2:	7c 85       	ldd	r23, Y+12	; 0x0c
     be4:	8d 85       	ldd	r24, Y+13	; 0x0d
     be6:	9e 85       	ldd	r25, Y+14	; 0x0e
     be8:	20 e0       	ldi	r18, 0x00	; 0
     bea:	30 e0       	ldi	r19, 0x00	; 0
     bec:	40 e2       	ldi	r20, 0x20	; 32
     bee:	51 e4       	ldi	r21, 0x41	; 65
     bf0:	14 d4       	rcall	.+2088   	; 0x141a <__mulsf3>
     bf2:	dc 01       	movw	r26, r24
     bf4:	cb 01       	movw	r24, r22
     bf6:	bc 01       	movw	r22, r24
     bf8:	cd 01       	movw	r24, r26
     bfa:	2d d3       	rcall	.+1626   	; 0x1256 <__fixunssfsi>
     bfc:	dc 01       	movw	r26, r24
     bfe:	cb 01       	movw	r24, r22
     c00:	9e 83       	std	Y+6, r25	; 0x06
     c02:	8d 83       	std	Y+5, r24	; 0x05
     c04:	0f c0       	rjmp	.+30     	; 0xc24 <main+0xcc>
     c06:	84 e1       	ldi	r24, 0x14	; 20
     c08:	91 e0       	ldi	r25, 0x01	; 1
     c0a:	9c 83       	std	Y+4, r25	; 0x04
     c0c:	8b 83       	std	Y+3, r24	; 0x03
     c0e:	8b 81       	ldd	r24, Y+3	; 0x03
     c10:	9c 81       	ldd	r25, Y+4	; 0x04
     c12:	01 97       	sbiw	r24, 0x01	; 1
     c14:	f1 f7       	brne	.-4      	; 0xc12 <main+0xba>
     c16:	9c 83       	std	Y+4, r25	; 0x04
     c18:	8b 83       	std	Y+3, r24	; 0x03
     c1a:	8d 81       	ldd	r24, Y+5	; 0x05
     c1c:	9e 81       	ldd	r25, Y+6	; 0x06
     c1e:	01 97       	sbiw	r24, 0x01	; 1
     c20:	9e 83       	std	Y+6, r25	; 0x06
     c22:	8d 83       	std	Y+5, r24	; 0x05
     c24:	8d 81       	ldd	r24, Y+5	; 0x05
     c26:	9e 81       	ldd	r25, Y+6	; 0x06
     c28:	00 97       	sbiw	r24, 0x00	; 0
     c2a:	69 f7       	brne	.-38     	; 0xc06 <main+0xae>
     c2c:	13 c0       	rjmp	.+38     	; 0xc54 <main+0xfc>
     c2e:	6f 81       	ldd	r22, Y+7	; 0x07
     c30:	78 85       	ldd	r23, Y+8	; 0x08
     c32:	89 85       	ldd	r24, Y+9	; 0x09
     c34:	9a 85       	ldd	r25, Y+10	; 0x0a
     c36:	0f d3       	rcall	.+1566   	; 0x1256 <__fixunssfsi>
     c38:	dc 01       	movw	r26, r24
     c3a:	cb 01       	movw	r24, r22
     c3c:	9e 83       	std	Y+6, r25	; 0x06
     c3e:	8d 83       	std	Y+5, r24	; 0x05
     c40:	8d 81       	ldd	r24, Y+5	; 0x05
     c42:	9e 81       	ldd	r25, Y+6	; 0x06
     c44:	9a 83       	std	Y+2, r25	; 0x02
     c46:	89 83       	std	Y+1, r24	; 0x01
     c48:	89 81       	ldd	r24, Y+1	; 0x01
     c4a:	9a 81       	ldd	r25, Y+2	; 0x02
     c4c:	01 97       	sbiw	r24, 0x01	; 1
     c4e:	f1 f7       	brne	.-4      	; 0xc4c <main+0xf4>
     c50:	9a 83       	std	Y+2, r25	; 0x02
     c52:	89 83       	std	Y+1, r24	; 0x01
     c54:	ce 01       	movw	r24, r28
     c56:	0f 96       	adiw	r24, 0x0f	; 15
     c58:	2a dd       	rcall	.-1452   	; 0x6ae <CAN_read>
     c5a:	0f 85       	ldd	r16, Y+15	; 0x0f
     c5c:	18 89       	ldd	r17, Y+16	; 0x10
     c5e:	29 89       	ldd	r18, Y+17	; 0x11
     c60:	3a 89       	ldd	r19, Y+18	; 0x12
     c62:	4b 89       	ldd	r20, Y+19	; 0x13
     c64:	5c 89       	ldd	r21, Y+20	; 0x14
     c66:	6d 89       	ldd	r22, Y+21	; 0x15
     c68:	7e 89       	ldd	r23, Y+22	; 0x16
     c6a:	8f 89       	ldd	r24, Y+23	; 0x17
     c6c:	98 8d       	ldd	r25, Y+24	; 0x18
     c6e:	ff da       	rcall	.-2562   	; 0x26e <action>
     c70:	1f 86       	std	Y+15, r1	; 0x0f
     c72:	f0 cf       	rjmp	.-32     	; 0xc54 <main+0xfc>

00000c74 <GPIO_OutputRegister>:
     c74:	0f 93       	push	r16
     c76:	1f 93       	push	r17
     c78:	df 93       	push	r29
     c7a:	cf 93       	push	r28
     c7c:	00 d0       	rcall	.+0      	; 0xc7e <GPIO_OutputRegister+0xa>
     c7e:	00 d0       	rcall	.+0      	; 0xc80 <GPIO_OutputRegister+0xc>
     c80:	0f 92       	push	r0
     c82:	cd b7       	in	r28, 0x3d	; 61
     c84:	de b7       	in	r29, 0x3e	; 62
     c86:	9b 83       	std	Y+3, r25	; 0x03
     c88:	8a 83       	std	Y+2, r24	; 0x02
     c8a:	6c 83       	std	Y+4, r22	; 0x04
     c8c:	80 91 fe 02 	lds	r24, 0x02FE
     c90:	8a 30       	cpi	r24, 0x0A	; 10
     c92:	18 f0       	brcs	.+6      	; 0xc9a <GPIO_OutputRegister+0x26>
     c94:	8f ef       	ldi	r24, 0xFF	; 255
     c96:	8d 83       	std	Y+5, r24	; 0x05
     c98:	72 c0       	rjmp	.+228    	; 0xd7e <GPIO_OutputRegister+0x10a>
     c9a:	80 91 fe 02 	lds	r24, 0x02FE
     c9e:	08 2f       	mov	r16, r24
     ca0:	10 e0       	ldi	r17, 0x00	; 0
     ca2:	83 e0       	ldi	r24, 0x03	; 3
     ca4:	90 e0       	ldi	r25, 0x00	; 0
     ca6:	1c d4       	rcall	.+2104   	; 0x14e0 <malloc>
     ca8:	9c 01       	movw	r18, r24
     caa:	c8 01       	movw	r24, r16
     cac:	88 0f       	add	r24, r24
     cae:	99 1f       	adc	r25, r25
     cb0:	fc 01       	movw	r30, r24
     cb2:	ec 5e       	subi	r30, 0xEC	; 236
     cb4:	fc 4f       	sbci	r31, 0xFC	; 252
     cb6:	31 83       	std	Z+1, r19	; 0x01
     cb8:	20 83       	st	Z, r18
     cba:	80 91 fe 02 	lds	r24, 0x02FE
     cbe:	88 2f       	mov	r24, r24
     cc0:	90 e0       	ldi	r25, 0x00	; 0
     cc2:	88 0f       	add	r24, r24
     cc4:	99 1f       	adc	r25, r25
     cc6:	fc 01       	movw	r30, r24
     cc8:	ec 5e       	subi	r30, 0xEC	; 236
     cca:	fc 4f       	sbci	r31, 0xFC	; 252
     ccc:	80 81       	ld	r24, Z
     cce:	91 81       	ldd	r25, Z+1	; 0x01
     cd0:	00 97       	sbiw	r24, 0x00	; 0
     cd2:	19 f4       	brne	.+6      	; 0xcda <GPIO_OutputRegister+0x66>
     cd4:	8f ef       	ldi	r24, 0xFF	; 255
     cd6:	8d 83       	std	Y+5, r24	; 0x05
     cd8:	52 c0       	rjmp	.+164    	; 0xd7e <GPIO_OutputRegister+0x10a>
     cda:	80 91 fe 02 	lds	r24, 0x02FE
     cde:	88 2f       	mov	r24, r24
     ce0:	90 e0       	ldi	r25, 0x00	; 0
     ce2:	88 0f       	add	r24, r24
     ce4:	99 1f       	adc	r25, r25
     ce6:	fc 01       	movw	r30, r24
     ce8:	ec 5e       	subi	r30, 0xEC	; 236
     cea:	fc 4f       	sbci	r31, 0xFC	; 252
     cec:	01 90       	ld	r0, Z+
     cee:	f0 81       	ld	r31, Z
     cf0:	e0 2d       	mov	r30, r0
     cf2:	8a 81       	ldd	r24, Y+2	; 0x02
     cf4:	9b 81       	ldd	r25, Y+3	; 0x03
     cf6:	91 83       	std	Z+1, r25	; 0x01
     cf8:	80 83       	st	Z, r24
     cfa:	80 91 fe 02 	lds	r24, 0x02FE
     cfe:	88 2f       	mov	r24, r24
     d00:	90 e0       	ldi	r25, 0x00	; 0
     d02:	88 0f       	add	r24, r24
     d04:	99 1f       	adc	r25, r25
     d06:	fc 01       	movw	r30, r24
     d08:	ec 5e       	subi	r30, 0xEC	; 236
     d0a:	fc 4f       	sbci	r31, 0xFC	; 252
     d0c:	01 90       	ld	r0, Z+
     d0e:	f0 81       	ld	r31, Z
     d10:	e0 2d       	mov	r30, r0
     d12:	8c 81       	ldd	r24, Y+4	; 0x04
     d14:	82 83       	std	Z+2, r24	; 0x02
     d16:	8a 81       	ldd	r24, Y+2	; 0x02
     d18:	9b 81       	ldd	r25, Y+3	; 0x03
     d1a:	dc 01       	movw	r26, r24
     d1c:	11 97       	sbiw	r26, 0x01	; 1
     d1e:	8a 81       	ldd	r24, Y+2	; 0x02
     d20:	9b 81       	ldd	r25, Y+3	; 0x03
     d22:	fc 01       	movw	r30, r24
     d24:	31 97       	sbiw	r30, 0x01	; 1
     d26:	80 81       	ld	r24, Z
     d28:	48 2f       	mov	r20, r24
     d2a:	8c 81       	ldd	r24, Y+4	; 0x04
     d2c:	28 2f       	mov	r18, r24
     d2e:	30 e0       	ldi	r19, 0x00	; 0
     d30:	81 e0       	ldi	r24, 0x01	; 1
     d32:	90 e0       	ldi	r25, 0x00	; 0
     d34:	02 c0       	rjmp	.+4      	; 0xd3a <GPIO_OutputRegister+0xc6>
     d36:	88 0f       	add	r24, r24
     d38:	99 1f       	adc	r25, r25
     d3a:	2a 95       	dec	r18
     d3c:	e2 f7       	brpl	.-8      	; 0xd36 <GPIO_OutputRegister+0xc2>
     d3e:	84 2b       	or	r24, r20
     d40:	8c 93       	st	X, r24
     d42:	ea 81       	ldd	r30, Y+2	; 0x02
     d44:	fb 81       	ldd	r31, Y+3	; 0x03
     d46:	80 81       	ld	r24, Z
     d48:	48 2f       	mov	r20, r24
     d4a:	8c 81       	ldd	r24, Y+4	; 0x04
     d4c:	28 2f       	mov	r18, r24
     d4e:	30 e0       	ldi	r19, 0x00	; 0
     d50:	81 e0       	ldi	r24, 0x01	; 1
     d52:	90 e0       	ldi	r25, 0x00	; 0
     d54:	02 2e       	mov	r0, r18
     d56:	02 c0       	rjmp	.+4      	; 0xd5c <GPIO_OutputRegister+0xe8>
     d58:	88 0f       	add	r24, r24
     d5a:	99 1f       	adc	r25, r25
     d5c:	0a 94       	dec	r0
     d5e:	e2 f7       	brpl	.-8      	; 0xd58 <GPIO_OutputRegister+0xe4>
     d60:	80 95       	com	r24
     d62:	84 23       	and	r24, r20
     d64:	ea 81       	ldd	r30, Y+2	; 0x02
     d66:	fb 81       	ldd	r31, Y+3	; 0x03
     d68:	80 83       	st	Z, r24
     d6a:	80 91 fe 02 	lds	r24, 0x02FE
     d6e:	89 83       	std	Y+1, r24	; 0x01
     d70:	80 91 fe 02 	lds	r24, 0x02FE
     d74:	8f 5f       	subi	r24, 0xFF	; 255
     d76:	80 93 fe 02 	sts	0x02FE, r24
     d7a:	89 81       	ldd	r24, Y+1	; 0x01
     d7c:	8d 83       	std	Y+5, r24	; 0x05
     d7e:	8d 81       	ldd	r24, Y+5	; 0x05
     d80:	0f 90       	pop	r0
     d82:	0f 90       	pop	r0
     d84:	0f 90       	pop	r0
     d86:	0f 90       	pop	r0
     d88:	0f 90       	pop	r0
     d8a:	cf 91       	pop	r28
     d8c:	df 91       	pop	r29
     d8e:	1f 91       	pop	r17
     d90:	0f 91       	pop	r16
     d92:	08 95       	ret

00000d94 <GPIO_OutputSet>:
     d94:	df 93       	push	r29
     d96:	cf 93       	push	r28
     d98:	00 d0       	rcall	.+0      	; 0xd9a <GPIO_OutputSet+0x6>
     d9a:	cd b7       	in	r28, 0x3d	; 61
     d9c:	de b7       	in	r29, 0x3e	; 62
     d9e:	89 83       	std	Y+1, r24	; 0x01
     da0:	90 91 fe 02 	lds	r25, 0x02FE
     da4:	89 81       	ldd	r24, Y+1	; 0x01
     da6:	89 17       	cp	r24, r25
     da8:	18 f0       	brcs	.+6      	; 0xdb0 <GPIO_OutputSet+0x1c>
     daa:	8f ef       	ldi	r24, 0xFF	; 255
     dac:	8a 83       	std	Y+2, r24	; 0x02
     dae:	29 c0       	rjmp	.+82     	; 0xe02 <GPIO_OutputSet+0x6e>
     db0:	89 81       	ldd	r24, Y+1	; 0x01
     db2:	88 2f       	mov	r24, r24
     db4:	90 e0       	ldi	r25, 0x00	; 0
     db6:	88 0f       	add	r24, r24
     db8:	99 1f       	adc	r25, r25
     dba:	fc 01       	movw	r30, r24
     dbc:	ec 5e       	subi	r30, 0xEC	; 236
     dbe:	fc 4f       	sbci	r31, 0xFC	; 252
     dc0:	01 90       	ld	r0, Z+
     dc2:	f0 81       	ld	r31, Z
     dc4:	e0 2d       	mov	r30, r0
     dc6:	a0 81       	ld	r26, Z
     dc8:	b1 81       	ldd	r27, Z+1	; 0x01
     dca:	8c 91       	ld	r24, X
     dcc:	48 2f       	mov	r20, r24
     dce:	89 81       	ldd	r24, Y+1	; 0x01
     dd0:	88 2f       	mov	r24, r24
     dd2:	90 e0       	ldi	r25, 0x00	; 0
     dd4:	88 0f       	add	r24, r24
     dd6:	99 1f       	adc	r25, r25
     dd8:	fc 01       	movw	r30, r24
     dda:	ec 5e       	subi	r30, 0xEC	; 236
     ddc:	fc 4f       	sbci	r31, 0xFC	; 252
     dde:	01 90       	ld	r0, Z+
     de0:	f0 81       	ld	r31, Z
     de2:	e0 2d       	mov	r30, r0
     de4:	82 81       	ldd	r24, Z+2	; 0x02
     de6:	28 2f       	mov	r18, r24
     de8:	30 e0       	ldi	r19, 0x00	; 0
     dea:	81 e0       	ldi	r24, 0x01	; 1
     dec:	90 e0       	ldi	r25, 0x00	; 0
     dee:	02 2e       	mov	r0, r18
     df0:	02 c0       	rjmp	.+4      	; 0xdf6 <GPIO_OutputSet+0x62>
     df2:	88 0f       	add	r24, r24
     df4:	99 1f       	adc	r25, r25
     df6:	0a 94       	dec	r0
     df8:	e2 f7       	brpl	.-8      	; 0xdf2 <GPIO_OutputSet+0x5e>
     dfa:	84 2b       	or	r24, r20
     dfc:	8c 93       	st	X, r24
     dfe:	81 e0       	ldi	r24, 0x01	; 1
     e00:	8a 83       	std	Y+2, r24	; 0x02
     e02:	8a 81       	ldd	r24, Y+2	; 0x02
     e04:	0f 90       	pop	r0
     e06:	0f 90       	pop	r0
     e08:	cf 91       	pop	r28
     e0a:	df 91       	pop	r29
     e0c:	08 95       	ret

00000e0e <GPIO_OutputReset>:
     e0e:	df 93       	push	r29
     e10:	cf 93       	push	r28
     e12:	00 d0       	rcall	.+0      	; 0xe14 <GPIO_OutputReset+0x6>
     e14:	cd b7       	in	r28, 0x3d	; 61
     e16:	de b7       	in	r29, 0x3e	; 62
     e18:	89 83       	std	Y+1, r24	; 0x01
     e1a:	90 91 fe 02 	lds	r25, 0x02FE
     e1e:	89 81       	ldd	r24, Y+1	; 0x01
     e20:	89 17       	cp	r24, r25
     e22:	18 f0       	brcs	.+6      	; 0xe2a <GPIO_OutputReset+0x1c>
     e24:	8f ef       	ldi	r24, 0xFF	; 255
     e26:	8a 83       	std	Y+2, r24	; 0x02
     e28:	29 c0       	rjmp	.+82     	; 0xe7c <GPIO_OutputReset+0x6e>
     e2a:	89 81       	ldd	r24, Y+1	; 0x01
     e2c:	88 2f       	mov	r24, r24
     e2e:	90 e0       	ldi	r25, 0x00	; 0
     e30:	88 0f       	add	r24, r24
     e32:	99 1f       	adc	r25, r25
     e34:	fc 01       	movw	r30, r24
     e36:	ec 5e       	subi	r30, 0xEC	; 236
     e38:	fc 4f       	sbci	r31, 0xFC	; 252
     e3a:	01 90       	ld	r0, Z+
     e3c:	f0 81       	ld	r31, Z
     e3e:	e0 2d       	mov	r30, r0
     e40:	a0 81       	ld	r26, Z
     e42:	b1 81       	ldd	r27, Z+1	; 0x01
     e44:	8c 91       	ld	r24, X
     e46:	48 2f       	mov	r20, r24
     e48:	89 81       	ldd	r24, Y+1	; 0x01
     e4a:	88 2f       	mov	r24, r24
     e4c:	90 e0       	ldi	r25, 0x00	; 0
     e4e:	88 0f       	add	r24, r24
     e50:	99 1f       	adc	r25, r25
     e52:	fc 01       	movw	r30, r24
     e54:	ec 5e       	subi	r30, 0xEC	; 236
     e56:	fc 4f       	sbci	r31, 0xFC	; 252
     e58:	01 90       	ld	r0, Z+
     e5a:	f0 81       	ld	r31, Z
     e5c:	e0 2d       	mov	r30, r0
     e5e:	82 81       	ldd	r24, Z+2	; 0x02
     e60:	28 2f       	mov	r18, r24
     e62:	30 e0       	ldi	r19, 0x00	; 0
     e64:	81 e0       	ldi	r24, 0x01	; 1
     e66:	90 e0       	ldi	r25, 0x00	; 0
     e68:	02 2e       	mov	r0, r18
     e6a:	02 c0       	rjmp	.+4      	; 0xe70 <GPIO_OutputReset+0x62>
     e6c:	88 0f       	add	r24, r24
     e6e:	99 1f       	adc	r25, r25
     e70:	0a 94       	dec	r0
     e72:	e2 f7       	brpl	.-8      	; 0xe6c <GPIO_OutputReset+0x5e>
     e74:	80 95       	com	r24
     e76:	84 23       	and	r24, r20
     e78:	8c 93       	st	X, r24
     e7a:	1a 82       	std	Y+2, r1	; 0x02
     e7c:	8a 81       	ldd	r24, Y+2	; 0x02
     e7e:	0f 90       	pop	r0
     e80:	0f 90       	pop	r0
     e82:	cf 91       	pop	r28
     e84:	df 91       	pop	r29
     e86:	08 95       	ret

00000e88 <GPIO_ReadFromRegister>:
     e88:	df 93       	push	r29
     e8a:	cf 93       	push	r28
     e8c:	00 d0       	rcall	.+0      	; 0xe8e <GPIO_ReadFromRegister+0x6>
     e8e:	cd b7       	in	r28, 0x3d	; 61
     e90:	de b7       	in	r29, 0x3e	; 62
     e92:	8a 83       	std	Y+2, r24	; 0x02
     e94:	19 82       	std	Y+1, r1	; 0x01
     e96:	8a 81       	ldd	r24, Y+2	; 0x02
     e98:	88 2f       	mov	r24, r24
     e9a:	90 e0       	ldi	r25, 0x00	; 0
     e9c:	88 0f       	add	r24, r24
     e9e:	99 1f       	adc	r25, r25
     ea0:	fc 01       	movw	r30, r24
     ea2:	e0 50       	subi	r30, 0x00	; 0
     ea4:	fd 4f       	sbci	r31, 0xFD	; 253
     ea6:	01 90       	ld	r0, Z+
     ea8:	f0 81       	ld	r31, Z
     eaa:	e0 2d       	mov	r30, r0
     eac:	80 81       	ld	r24, Z
     eae:	91 81       	ldd	r25, Z+1	; 0x01
     eb0:	fc 01       	movw	r30, r24
     eb2:	32 97       	sbiw	r30, 0x02	; 2
     eb4:	80 81       	ld	r24, Z
     eb6:	28 2f       	mov	r18, r24
     eb8:	30 e0       	ldi	r19, 0x00	; 0
     eba:	8a 81       	ldd	r24, Y+2	; 0x02
     ebc:	88 2f       	mov	r24, r24
     ebe:	90 e0       	ldi	r25, 0x00	; 0
     ec0:	88 0f       	add	r24, r24
     ec2:	99 1f       	adc	r25, r25
     ec4:	fc 01       	movw	r30, r24
     ec6:	e0 50       	subi	r30, 0x00	; 0
     ec8:	fd 4f       	sbci	r31, 0xFD	; 253
     eca:	01 90       	ld	r0, Z+
     ecc:	f0 81       	ld	r31, Z
     ece:	e0 2d       	mov	r30, r0
     ed0:	82 81       	ldd	r24, Z+2	; 0x02
     ed2:	88 2f       	mov	r24, r24
     ed4:	90 e0       	ldi	r25, 0x00	; 0
     ed6:	a9 01       	movw	r20, r18
     ed8:	02 c0       	rjmp	.+4      	; 0xede <GPIO_ReadFromRegister+0x56>
     eda:	55 95       	asr	r21
     edc:	47 95       	ror	r20
     ede:	8a 95       	dec	r24
     ee0:	e2 f7       	brpl	.-8      	; 0xeda <GPIO_ReadFromRegister+0x52>
     ee2:	ca 01       	movw	r24, r20
     ee4:	81 70       	andi	r24, 0x01	; 1
     ee6:	89 83       	std	Y+1, r24	; 0x01
     ee8:	89 81       	ldd	r24, Y+1	; 0x01
     eea:	0f 90       	pop	r0
     eec:	0f 90       	pop	r0
     eee:	cf 91       	pop	r28
     ef0:	df 91       	pop	r29
     ef2:	08 95       	ret

00000ef4 <fillDebaunsingData>:
     ef4:	ef 92       	push	r14
     ef6:	ff 92       	push	r15
     ef8:	0f 93       	push	r16
     efa:	1f 93       	push	r17
     efc:	df 93       	push	r29
     efe:	cf 93       	push	r28
     f00:	0f 92       	push	r0
     f02:	cd b7       	in	r28, 0x3d	; 61
     f04:	de b7       	in	r29, 0x3e	; 62
     f06:	80 91 ff 02 	lds	r24, 0x02FF
     f0a:	8f 5f       	subi	r24, 0xFF	; 255
     f0c:	80 93 ff 02 	sts	0x02FF, r24
     f10:	80 91 ff 02 	lds	r24, 0x02FF
     f14:	83 30       	cpi	r24, 0x03	; 3
     f16:	10 f0       	brcs	.+4      	; 0xf1c <fillDebaunsingData+0x28>
     f18:	10 92 ff 02 	sts	0x02FF, r1
     f1c:	19 82       	std	Y+1, r1	; 0x01
     f1e:	1a c0       	rjmp	.+52     	; 0xf54 <fillDebaunsingData+0x60>
     f20:	89 81       	ldd	r24, Y+1	; 0x01
     f22:	88 2f       	mov	r24, r24
     f24:	90 e0       	ldi	r25, 0x00	; 0
     f26:	88 0f       	add	r24, r24
     f28:	99 1f       	adc	r25, r25
     f2a:	fc 01       	movw	r30, r24
     f2c:	e0 50       	subi	r30, 0x00	; 0
     f2e:	fd 4f       	sbci	r31, 0xFD	; 253
     f30:	e0 80       	ld	r14, Z
     f32:	f1 80       	ldd	r15, Z+1	; 0x01
     f34:	80 91 ff 02 	lds	r24, 0x02FF
     f38:	08 2f       	mov	r16, r24
     f3a:	10 e0       	ldi	r17, 0x00	; 0
     f3c:	89 81       	ldd	r24, Y+1	; 0x01
     f3e:	a4 df       	rcall	.-184    	; 0xe88 <GPIO_ReadFromRegister>
     f40:	28 2f       	mov	r18, r24
     f42:	c7 01       	movw	r24, r14
     f44:	80 0f       	add	r24, r16
     f46:	91 1f       	adc	r25, r17
     f48:	fc 01       	movw	r30, r24
     f4a:	33 96       	adiw	r30, 0x03	; 3
     f4c:	20 83       	st	Z, r18
     f4e:	89 81       	ldd	r24, Y+1	; 0x01
     f50:	8f 5f       	subi	r24, 0xFF	; 255
     f52:	89 83       	std	Y+1, r24	; 0x01
     f54:	90 91 fd 02 	lds	r25, 0x02FD
     f58:	89 81       	ldd	r24, Y+1	; 0x01
     f5a:	89 17       	cp	r24, r25
     f5c:	08 f3       	brcs	.-62     	; 0xf20 <fillDebaunsingData+0x2c>
     f5e:	0f 90       	pop	r0
     f60:	cf 91       	pop	r28
     f62:	df 91       	pop	r29
     f64:	1f 91       	pop	r17
     f66:	0f 91       	pop	r16
     f68:	ff 90       	pop	r15
     f6a:	ef 90       	pop	r14
     f6c:	08 95       	ret

00000f6e <Timer_Init>:
     f6e:	0f 93       	push	r16
     f70:	1f 93       	push	r17
     f72:	df 93       	push	r29
     f74:	cf 93       	push	r28
     f76:	00 d0       	rcall	.+0      	; 0xf78 <Timer_Init+0xa>
     f78:	cd b7       	in	r28, 0x3d	; 61
     f7a:	de b7       	in	r29, 0x3e	; 62
     f7c:	9a 83       	std	Y+2, r25	; 0x02
     f7e:	89 83       	std	Y+1, r24	; 0x01
     f80:	e0 e8       	ldi	r30, 0x80	; 128
     f82:	f0 e0       	ldi	r31, 0x00	; 0
     f84:	10 82       	st	Z, r1
     f86:	e1 e8       	ldi	r30, 0x81	; 129
     f88:	f0 e0       	ldi	r31, 0x00	; 0
     f8a:	89 e0       	ldi	r24, 0x09	; 9
     f8c:	80 83       	st	Z, r24
     f8e:	08 e8       	ldi	r16, 0x88	; 136
     f90:	10 e0       	ldi	r17, 0x00	; 0
     f92:	89 81       	ldd	r24, Y+1	; 0x01
     f94:	9a 81       	ldd	r25, Y+2	; 0x02
     f96:	cc 01       	movw	r24, r24
     f98:	a0 e0       	ldi	r26, 0x00	; 0
     f9a:	b0 e0       	ldi	r27, 0x00	; 0
     f9c:	bc 01       	movw	r22, r24
     f9e:	cd 01       	movw	r24, r26
     fa0:	86 d1       	rcall	.+780    	; 0x12ae <__floatunsisf>
     fa2:	9b 01       	movw	r18, r22
     fa4:	ac 01       	movw	r20, r24
     fa6:	60 e0       	ldi	r22, 0x00	; 0
     fa8:	70 ec       	ldi	r23, 0xC0	; 192
     faa:	88 e2       	ldi	r24, 0x28	; 40
     fac:	9b e4       	ldi	r25, 0x4B	; 75
     fae:	eb d0       	rcall	.+470    	; 0x1186 <__divsf3>
     fb0:	dc 01       	movw	r26, r24
     fb2:	cb 01       	movw	r24, r22
     fb4:	bc 01       	movw	r22, r24
     fb6:	cd 01       	movw	r24, r26
     fb8:	20 e0       	ldi	r18, 0x00	; 0
     fba:	30 e0       	ldi	r19, 0x00	; 0
     fbc:	40 e0       	ldi	r20, 0x00	; 0
     fbe:	5f e3       	ldi	r21, 0x3F	; 63
     fc0:	7a d0       	rcall	.+244    	; 0x10b6 <__addsf3>
     fc2:	dc 01       	movw	r26, r24
     fc4:	cb 01       	movw	r24, r22
     fc6:	bc 01       	movw	r22, r24
     fc8:	cd 01       	movw	r24, r26
     fca:	45 d1       	rcall	.+650    	; 0x1256 <__fixunssfsi>
     fcc:	dc 01       	movw	r26, r24
     fce:	cb 01       	movw	r24, r22
     fd0:	f8 01       	movw	r30, r16
     fd2:	91 83       	std	Z+1, r25	; 0x01
     fd4:	80 83       	st	Z, r24
     fd6:	ef e6       	ldi	r30, 0x6F	; 111
     fd8:	f0 e0       	ldi	r31, 0x00	; 0
     fda:	82 e0       	ldi	r24, 0x02	; 2
     fdc:	80 83       	st	Z, r24
     fde:	af e5       	ldi	r26, 0x5F	; 95
     fe0:	b0 e0       	ldi	r27, 0x00	; 0
     fe2:	ef e5       	ldi	r30, 0x5F	; 95
     fe4:	f0 e0       	ldi	r31, 0x00	; 0
     fe6:	80 81       	ld	r24, Z
     fe8:	80 68       	ori	r24, 0x80	; 128
     fea:	8c 93       	st	X, r24
     fec:	0f 90       	pop	r0
     fee:	0f 90       	pop	r0
     ff0:	cf 91       	pop	r28
     ff2:	df 91       	pop	r29
     ff4:	1f 91       	pop	r17
     ff6:	0f 91       	pop	r16
     ff8:	08 95       	ret

00000ffa <__vector_12>:
     ffa:	1f 92       	push	r1
     ffc:	0f 92       	push	r0
     ffe:	0f b6       	in	r0, 0x3f	; 63
    1000:	0f 92       	push	r0
    1002:	00 90 5b 00 	lds	r0, 0x005B
    1006:	0f 92       	push	r0
    1008:	11 24       	eor	r1, r1
    100a:	2f 93       	push	r18
    100c:	3f 93       	push	r19
    100e:	4f 93       	push	r20
    1010:	5f 93       	push	r21
    1012:	6f 93       	push	r22
    1014:	7f 93       	push	r23
    1016:	8f 93       	push	r24
    1018:	9f 93       	push	r25
    101a:	af 93       	push	r26
    101c:	bf 93       	push	r27
    101e:	ef 93       	push	r30
    1020:	ff 93       	push	r31
    1022:	df 93       	push	r29
    1024:	cf 93       	push	r28
    1026:	cd b7       	in	r28, 0x3d	; 61
    1028:	de b7       	in	r29, 0x3e	; 62
    102a:	64 df       	rcall	.-312    	; 0xef4 <fillDebaunsingData>
    102c:	cf 91       	pop	r28
    102e:	df 91       	pop	r29
    1030:	ff 91       	pop	r31
    1032:	ef 91       	pop	r30
    1034:	bf 91       	pop	r27
    1036:	af 91       	pop	r26
    1038:	9f 91       	pop	r25
    103a:	8f 91       	pop	r24
    103c:	7f 91       	pop	r23
    103e:	6f 91       	pop	r22
    1040:	5f 91       	pop	r21
    1042:	4f 91       	pop	r20
    1044:	3f 91       	pop	r19
    1046:	2f 91       	pop	r18
    1048:	0f 90       	pop	r0
    104a:	00 92 5b 00 	sts	0x005B, r0
    104e:	0f 90       	pop	r0
    1050:	0f be       	out	0x3f, r0	; 63
    1052:	0f 90       	pop	r0
    1054:	1f 90       	pop	r1
    1056:	18 95       	reti

00001058 <systemInit>:
    1058:	df 93       	push	r29
    105a:	cf 93       	push	r28
    105c:	cd b7       	in	r28, 0x3d	; 61
    105e:	de b7       	in	r29, 0x3e	; 62
    1060:	88 ee       	ldi	r24, 0xE8	; 232
    1062:	93 e0       	ldi	r25, 0x03	; 3
    1064:	84 df       	rcall	.-248    	; 0xf6e <Timer_Init>
    1066:	81 e3       	ldi	r24, 0x31	; 49
    1068:	90 e0       	ldi	r25, 0x00	; 0
    106a:	67 e0       	ldi	r22, 0x07	; 7
    106c:	03 de       	rcall	.-1018   	; 0xc74 <GPIO_OutputRegister>
    106e:	80 93 28 03 	sts	0x0328, r24
    1072:	81 e3       	ldi	r24, 0x31	; 49
    1074:	90 e0       	ldi	r25, 0x00	; 0
    1076:	66 e0       	ldi	r22, 0x06	; 6
    1078:	fd dd       	rcall	.-1030   	; 0xc74 <GPIO_OutputRegister>
    107a:	80 93 29 03 	sts	0x0329, r24
    107e:	81 e3       	ldi	r24, 0x31	; 49
    1080:	90 e0       	ldi	r25, 0x00	; 0
    1082:	65 e0       	ldi	r22, 0x05	; 5
    1084:	f7 dd       	rcall	.-1042   	; 0xc74 <GPIO_OutputRegister>
    1086:	80 93 2c 03 	sts	0x032C, r24
    108a:	8e e2       	ldi	r24, 0x2E	; 46
    108c:	90 e0       	ldi	r25, 0x00	; 0
    108e:	63 e0       	ldi	r22, 0x03	; 3
    1090:	f1 dd       	rcall	.-1054   	; 0xc74 <GPIO_OutputRegister>
    1092:	80 93 2a 03 	sts	0x032A, r24
    1096:	8e e2       	ldi	r24, 0x2E	; 46
    1098:	90 e0       	ldi	r25, 0x00	; 0
    109a:	64 e0       	ldi	r22, 0x04	; 4
    109c:	eb dd       	rcall	.-1066   	; 0xc74 <GPIO_OutputRegister>
    109e:	80 93 2b 03 	sts	0x032B, r24
    10a2:	8e e2       	ldi	r24, 0x2E	; 46
    10a4:	90 e0       	ldi	r25, 0x00	; 0
    10a6:	65 e0       	ldi	r22, 0x05	; 5
    10a8:	e5 dd       	rcall	.-1078   	; 0xc74 <GPIO_OutputRegister>
    10aa:	80 93 2d 03 	sts	0x032D, r24
    10ae:	cf 91       	pop	r28
    10b0:	df 91       	pop	r29
    10b2:	08 95       	ret

000010b4 <__subsf3>:
    10b4:	50 58       	subi	r21, 0x80	; 128

000010b6 <__addsf3>:
    10b6:	bb 27       	eor	r27, r27
    10b8:	aa 27       	eor	r26, r26
    10ba:	0e d0       	rcall	.+28     	; 0x10d8 <__addsf3x>
    10bc:	70 c1       	rjmp	.+736    	; 0x139e <__fp_round>
    10be:	61 d1       	rcall	.+706    	; 0x1382 <__fp_pscA>
    10c0:	30 f0       	brcs	.+12     	; 0x10ce <__addsf3+0x18>
    10c2:	66 d1       	rcall	.+716    	; 0x1390 <__fp_pscB>
    10c4:	20 f0       	brcs	.+8      	; 0x10ce <__addsf3+0x18>
    10c6:	31 f4       	brne	.+12     	; 0x10d4 <__addsf3+0x1e>
    10c8:	9f 3f       	cpi	r25, 0xFF	; 255
    10ca:	11 f4       	brne	.+4      	; 0x10d0 <__addsf3+0x1a>
    10cc:	1e f4       	brtc	.+6      	; 0x10d4 <__addsf3+0x1e>
    10ce:	56 c1       	rjmp	.+684    	; 0x137c <__fp_nan>
    10d0:	0e f4       	brtc	.+2      	; 0x10d4 <__addsf3+0x1e>
    10d2:	e0 95       	com	r30
    10d4:	e7 fb       	bst	r30, 7
    10d6:	4c c1       	rjmp	.+664    	; 0x1370 <__fp_inf>

000010d8 <__addsf3x>:
    10d8:	e9 2f       	mov	r30, r25
    10da:	72 d1       	rcall	.+740    	; 0x13c0 <__fp_split3>
    10dc:	80 f3       	brcs	.-32     	; 0x10be <__addsf3+0x8>
    10de:	ba 17       	cp	r27, r26
    10e0:	62 07       	cpc	r22, r18
    10e2:	73 07       	cpc	r23, r19
    10e4:	84 07       	cpc	r24, r20
    10e6:	95 07       	cpc	r25, r21
    10e8:	18 f0       	brcs	.+6      	; 0x10f0 <__addsf3x+0x18>
    10ea:	71 f4       	brne	.+28     	; 0x1108 <__stack+0x9>
    10ec:	9e f5       	brtc	.+102    	; 0x1154 <__stack+0x55>
    10ee:	8a c1       	rjmp	.+788    	; 0x1404 <__fp_zero>
    10f0:	0e f4       	brtc	.+2      	; 0x10f4 <__addsf3x+0x1c>
    10f2:	e0 95       	com	r30
    10f4:	0b 2e       	mov	r0, r27
    10f6:	ba 2f       	mov	r27, r26
    10f8:	a0 2d       	mov	r26, r0
    10fa:	0b 01       	movw	r0, r22
    10fc:	b9 01       	movw	r22, r18
    10fe:	90 01       	movw	r18, r0
    1100:	0c 01       	movw	r0, r24
    1102:	ca 01       	movw	r24, r20
    1104:	a0 01       	movw	r20, r0
    1106:	11 24       	eor	r1, r1
    1108:	ff 27       	eor	r31, r31
    110a:	59 1b       	sub	r21, r25
    110c:	99 f0       	breq	.+38     	; 0x1134 <__stack+0x35>
    110e:	59 3f       	cpi	r21, 0xF9	; 249
    1110:	50 f4       	brcc	.+20     	; 0x1126 <__stack+0x27>
    1112:	50 3e       	cpi	r21, 0xE0	; 224
    1114:	68 f1       	brcs	.+90     	; 0x1170 <__stack+0x71>
    1116:	1a 16       	cp	r1, r26
    1118:	f0 40       	sbci	r31, 0x00	; 0
    111a:	a2 2f       	mov	r26, r18
    111c:	23 2f       	mov	r18, r19
    111e:	34 2f       	mov	r19, r20
    1120:	44 27       	eor	r20, r20
    1122:	58 5f       	subi	r21, 0xF8	; 248
    1124:	f3 cf       	rjmp	.-26     	; 0x110c <__stack+0xd>
    1126:	46 95       	lsr	r20
    1128:	37 95       	ror	r19
    112a:	27 95       	ror	r18
    112c:	a7 95       	ror	r26
    112e:	f0 40       	sbci	r31, 0x00	; 0
    1130:	53 95       	inc	r21
    1132:	c9 f7       	brne	.-14     	; 0x1126 <__stack+0x27>
    1134:	7e f4       	brtc	.+30     	; 0x1154 <__stack+0x55>
    1136:	1f 16       	cp	r1, r31
    1138:	ba 0b       	sbc	r27, r26
    113a:	62 0b       	sbc	r22, r18
    113c:	73 0b       	sbc	r23, r19
    113e:	84 0b       	sbc	r24, r20
    1140:	ba f0       	brmi	.+46     	; 0x1170 <__stack+0x71>
    1142:	91 50       	subi	r25, 0x01	; 1
    1144:	a1 f0       	breq	.+40     	; 0x116e <__stack+0x6f>
    1146:	ff 0f       	add	r31, r31
    1148:	bb 1f       	adc	r27, r27
    114a:	66 1f       	adc	r22, r22
    114c:	77 1f       	adc	r23, r23
    114e:	88 1f       	adc	r24, r24
    1150:	c2 f7       	brpl	.-16     	; 0x1142 <__stack+0x43>
    1152:	0e c0       	rjmp	.+28     	; 0x1170 <__stack+0x71>
    1154:	ba 0f       	add	r27, r26
    1156:	62 1f       	adc	r22, r18
    1158:	73 1f       	adc	r23, r19
    115a:	84 1f       	adc	r24, r20
    115c:	48 f4       	brcc	.+18     	; 0x1170 <__stack+0x71>
    115e:	87 95       	ror	r24
    1160:	77 95       	ror	r23
    1162:	67 95       	ror	r22
    1164:	b7 95       	ror	r27
    1166:	f7 95       	ror	r31
    1168:	9e 3f       	cpi	r25, 0xFE	; 254
    116a:	08 f0       	brcs	.+2      	; 0x116e <__stack+0x6f>
    116c:	b3 cf       	rjmp	.-154    	; 0x10d4 <__addsf3+0x1e>
    116e:	93 95       	inc	r25
    1170:	88 0f       	add	r24, r24
    1172:	08 f0       	brcs	.+2      	; 0x1176 <__stack+0x77>
    1174:	99 27       	eor	r25, r25
    1176:	ee 0f       	add	r30, r30
    1178:	97 95       	ror	r25
    117a:	87 95       	ror	r24
    117c:	08 95       	ret

0000117e <__cmpsf2>:
    117e:	d4 d0       	rcall	.+424    	; 0x1328 <__fp_cmp>
    1180:	08 f4       	brcc	.+2      	; 0x1184 <__cmpsf2+0x6>
    1182:	81 e0       	ldi	r24, 0x01	; 1
    1184:	08 95       	ret

00001186 <__divsf3>:
    1186:	0c d0       	rcall	.+24     	; 0x11a0 <__divsf3x>
    1188:	0a c1       	rjmp	.+532    	; 0x139e <__fp_round>
    118a:	02 d1       	rcall	.+516    	; 0x1390 <__fp_pscB>
    118c:	40 f0       	brcs	.+16     	; 0x119e <__divsf3+0x18>
    118e:	f9 d0       	rcall	.+498    	; 0x1382 <__fp_pscA>
    1190:	30 f0       	brcs	.+12     	; 0x119e <__divsf3+0x18>
    1192:	21 f4       	brne	.+8      	; 0x119c <__divsf3+0x16>
    1194:	5f 3f       	cpi	r21, 0xFF	; 255
    1196:	19 f0       	breq	.+6      	; 0x119e <__divsf3+0x18>
    1198:	eb c0       	rjmp	.+470    	; 0x1370 <__fp_inf>
    119a:	51 11       	cpse	r21, r1
    119c:	34 c1       	rjmp	.+616    	; 0x1406 <__fp_szero>
    119e:	ee c0       	rjmp	.+476    	; 0x137c <__fp_nan>

000011a0 <__divsf3x>:
    11a0:	0f d1       	rcall	.+542    	; 0x13c0 <__fp_split3>
    11a2:	98 f3       	brcs	.-26     	; 0x118a <__divsf3+0x4>

000011a4 <__divsf3_pse>:
    11a4:	99 23       	and	r25, r25
    11a6:	c9 f3       	breq	.-14     	; 0x119a <__divsf3+0x14>
    11a8:	55 23       	and	r21, r21
    11aa:	b1 f3       	breq	.-20     	; 0x1198 <__divsf3+0x12>
    11ac:	95 1b       	sub	r25, r21
    11ae:	55 0b       	sbc	r21, r21
    11b0:	bb 27       	eor	r27, r27
    11b2:	aa 27       	eor	r26, r26
    11b4:	62 17       	cp	r22, r18
    11b6:	73 07       	cpc	r23, r19
    11b8:	84 07       	cpc	r24, r20
    11ba:	38 f0       	brcs	.+14     	; 0x11ca <__divsf3_pse+0x26>
    11bc:	9f 5f       	subi	r25, 0xFF	; 255
    11be:	5f 4f       	sbci	r21, 0xFF	; 255
    11c0:	22 0f       	add	r18, r18
    11c2:	33 1f       	adc	r19, r19
    11c4:	44 1f       	adc	r20, r20
    11c6:	aa 1f       	adc	r26, r26
    11c8:	a9 f3       	breq	.-22     	; 0x11b4 <__divsf3_pse+0x10>
    11ca:	33 d0       	rcall	.+102    	; 0x1232 <__divsf3_pse+0x8e>
    11cc:	0e 2e       	mov	r0, r30
    11ce:	3a f0       	brmi	.+14     	; 0x11de <__divsf3_pse+0x3a>
    11d0:	e0 e8       	ldi	r30, 0x80	; 128
    11d2:	30 d0       	rcall	.+96     	; 0x1234 <__divsf3_pse+0x90>
    11d4:	91 50       	subi	r25, 0x01	; 1
    11d6:	50 40       	sbci	r21, 0x00	; 0
    11d8:	e6 95       	lsr	r30
    11da:	00 1c       	adc	r0, r0
    11dc:	ca f7       	brpl	.-14     	; 0x11d0 <__divsf3_pse+0x2c>
    11de:	29 d0       	rcall	.+82     	; 0x1232 <__divsf3_pse+0x8e>
    11e0:	fe 2f       	mov	r31, r30
    11e2:	27 d0       	rcall	.+78     	; 0x1232 <__divsf3_pse+0x8e>
    11e4:	66 0f       	add	r22, r22
    11e6:	77 1f       	adc	r23, r23
    11e8:	88 1f       	adc	r24, r24
    11ea:	bb 1f       	adc	r27, r27
    11ec:	26 17       	cp	r18, r22
    11ee:	37 07       	cpc	r19, r23
    11f0:	48 07       	cpc	r20, r24
    11f2:	ab 07       	cpc	r26, r27
    11f4:	b0 e8       	ldi	r27, 0x80	; 128
    11f6:	09 f0       	breq	.+2      	; 0x11fa <__divsf3_pse+0x56>
    11f8:	bb 0b       	sbc	r27, r27
    11fa:	80 2d       	mov	r24, r0
    11fc:	bf 01       	movw	r22, r30
    11fe:	ff 27       	eor	r31, r31
    1200:	93 58       	subi	r25, 0x83	; 131
    1202:	5f 4f       	sbci	r21, 0xFF	; 255
    1204:	2a f0       	brmi	.+10     	; 0x1210 <__divsf3_pse+0x6c>
    1206:	9e 3f       	cpi	r25, 0xFE	; 254
    1208:	51 05       	cpc	r21, r1
    120a:	68 f0       	brcs	.+26     	; 0x1226 <__divsf3_pse+0x82>
    120c:	b1 c0       	rjmp	.+354    	; 0x1370 <__fp_inf>
    120e:	fb c0       	rjmp	.+502    	; 0x1406 <__fp_szero>
    1210:	5f 3f       	cpi	r21, 0xFF	; 255
    1212:	ec f3       	brlt	.-6      	; 0x120e <__divsf3_pse+0x6a>
    1214:	98 3e       	cpi	r25, 0xE8	; 232
    1216:	dc f3       	brlt	.-10     	; 0x120e <__divsf3_pse+0x6a>
    1218:	86 95       	lsr	r24
    121a:	77 95       	ror	r23
    121c:	67 95       	ror	r22
    121e:	b7 95       	ror	r27
    1220:	f7 95       	ror	r31
    1222:	9f 5f       	subi	r25, 0xFF	; 255
    1224:	c9 f7       	brne	.-14     	; 0x1218 <__divsf3_pse+0x74>
    1226:	88 0f       	add	r24, r24
    1228:	91 1d       	adc	r25, r1
    122a:	96 95       	lsr	r25
    122c:	87 95       	ror	r24
    122e:	97 f9       	bld	r25, 7
    1230:	08 95       	ret
    1232:	e1 e0       	ldi	r30, 0x01	; 1
    1234:	66 0f       	add	r22, r22
    1236:	77 1f       	adc	r23, r23
    1238:	88 1f       	adc	r24, r24
    123a:	bb 1f       	adc	r27, r27
    123c:	62 17       	cp	r22, r18
    123e:	73 07       	cpc	r23, r19
    1240:	84 07       	cpc	r24, r20
    1242:	ba 07       	cpc	r27, r26
    1244:	20 f0       	brcs	.+8      	; 0x124e <__divsf3_pse+0xaa>
    1246:	62 1b       	sub	r22, r18
    1248:	73 0b       	sbc	r23, r19
    124a:	84 0b       	sbc	r24, r20
    124c:	ba 0b       	sbc	r27, r26
    124e:	ee 1f       	adc	r30, r30
    1250:	88 f7       	brcc	.-30     	; 0x1234 <__divsf3_pse+0x90>
    1252:	e0 95       	com	r30
    1254:	08 95       	ret

00001256 <__fixunssfsi>:
    1256:	bc d0       	rcall	.+376    	; 0x13d0 <__fp_splitA>
    1258:	88 f0       	brcs	.+34     	; 0x127c <__fixunssfsi+0x26>
    125a:	9f 57       	subi	r25, 0x7F	; 127
    125c:	90 f0       	brcs	.+36     	; 0x1282 <__fixunssfsi+0x2c>
    125e:	b9 2f       	mov	r27, r25
    1260:	99 27       	eor	r25, r25
    1262:	b7 51       	subi	r27, 0x17	; 23
    1264:	a0 f0       	brcs	.+40     	; 0x128e <__fixunssfsi+0x38>
    1266:	d1 f0       	breq	.+52     	; 0x129c <__fixunssfsi+0x46>
    1268:	66 0f       	add	r22, r22
    126a:	77 1f       	adc	r23, r23
    126c:	88 1f       	adc	r24, r24
    126e:	99 1f       	adc	r25, r25
    1270:	1a f0       	brmi	.+6      	; 0x1278 <__fixunssfsi+0x22>
    1272:	ba 95       	dec	r27
    1274:	c9 f7       	brne	.-14     	; 0x1268 <__fixunssfsi+0x12>
    1276:	12 c0       	rjmp	.+36     	; 0x129c <__fixunssfsi+0x46>
    1278:	b1 30       	cpi	r27, 0x01	; 1
    127a:	81 f0       	breq	.+32     	; 0x129c <__fixunssfsi+0x46>
    127c:	c3 d0       	rcall	.+390    	; 0x1404 <__fp_zero>
    127e:	b1 e0       	ldi	r27, 0x01	; 1
    1280:	08 95       	ret
    1282:	c0 c0       	rjmp	.+384    	; 0x1404 <__fp_zero>
    1284:	67 2f       	mov	r22, r23
    1286:	78 2f       	mov	r23, r24
    1288:	88 27       	eor	r24, r24
    128a:	b8 5f       	subi	r27, 0xF8	; 248
    128c:	39 f0       	breq	.+14     	; 0x129c <__fixunssfsi+0x46>
    128e:	b9 3f       	cpi	r27, 0xF9	; 249
    1290:	cc f3       	brlt	.-14     	; 0x1284 <__fixunssfsi+0x2e>
    1292:	86 95       	lsr	r24
    1294:	77 95       	ror	r23
    1296:	67 95       	ror	r22
    1298:	b3 95       	inc	r27
    129a:	d9 f7       	brne	.-10     	; 0x1292 <__fixunssfsi+0x3c>
    129c:	3e f4       	brtc	.+14     	; 0x12ac <__fixunssfsi+0x56>
    129e:	90 95       	com	r25
    12a0:	80 95       	com	r24
    12a2:	70 95       	com	r23
    12a4:	61 95       	neg	r22
    12a6:	7f 4f       	sbci	r23, 0xFF	; 255
    12a8:	8f 4f       	sbci	r24, 0xFF	; 255
    12aa:	9f 4f       	sbci	r25, 0xFF	; 255
    12ac:	08 95       	ret

000012ae <__floatunsisf>:
    12ae:	e8 94       	clt
    12b0:	09 c0       	rjmp	.+18     	; 0x12c4 <__floatsisf+0x12>

000012b2 <__floatsisf>:
    12b2:	97 fb       	bst	r25, 7
    12b4:	3e f4       	brtc	.+14     	; 0x12c4 <__floatsisf+0x12>
    12b6:	90 95       	com	r25
    12b8:	80 95       	com	r24
    12ba:	70 95       	com	r23
    12bc:	61 95       	neg	r22
    12be:	7f 4f       	sbci	r23, 0xFF	; 255
    12c0:	8f 4f       	sbci	r24, 0xFF	; 255
    12c2:	9f 4f       	sbci	r25, 0xFF	; 255
    12c4:	99 23       	and	r25, r25
    12c6:	a9 f0       	breq	.+42     	; 0x12f2 <__floatsisf+0x40>
    12c8:	f9 2f       	mov	r31, r25
    12ca:	96 e9       	ldi	r25, 0x96	; 150
    12cc:	bb 27       	eor	r27, r27
    12ce:	93 95       	inc	r25
    12d0:	f6 95       	lsr	r31
    12d2:	87 95       	ror	r24
    12d4:	77 95       	ror	r23
    12d6:	67 95       	ror	r22
    12d8:	b7 95       	ror	r27
    12da:	f1 11       	cpse	r31, r1
    12dc:	f8 cf       	rjmp	.-16     	; 0x12ce <__floatsisf+0x1c>
    12de:	fa f4       	brpl	.+62     	; 0x131e <__floatsisf+0x6c>
    12e0:	bb 0f       	add	r27, r27
    12e2:	11 f4       	brne	.+4      	; 0x12e8 <__floatsisf+0x36>
    12e4:	60 ff       	sbrs	r22, 0
    12e6:	1b c0       	rjmp	.+54     	; 0x131e <__floatsisf+0x6c>
    12e8:	6f 5f       	subi	r22, 0xFF	; 255
    12ea:	7f 4f       	sbci	r23, 0xFF	; 255
    12ec:	8f 4f       	sbci	r24, 0xFF	; 255
    12ee:	9f 4f       	sbci	r25, 0xFF	; 255
    12f0:	16 c0       	rjmp	.+44     	; 0x131e <__floatsisf+0x6c>
    12f2:	88 23       	and	r24, r24
    12f4:	11 f0       	breq	.+4      	; 0x12fa <__floatsisf+0x48>
    12f6:	96 e9       	ldi	r25, 0x96	; 150
    12f8:	11 c0       	rjmp	.+34     	; 0x131c <__floatsisf+0x6a>
    12fa:	77 23       	and	r23, r23
    12fc:	21 f0       	breq	.+8      	; 0x1306 <__floatsisf+0x54>
    12fe:	9e e8       	ldi	r25, 0x8E	; 142
    1300:	87 2f       	mov	r24, r23
    1302:	76 2f       	mov	r23, r22
    1304:	05 c0       	rjmp	.+10     	; 0x1310 <__floatsisf+0x5e>
    1306:	66 23       	and	r22, r22
    1308:	71 f0       	breq	.+28     	; 0x1326 <__floatsisf+0x74>
    130a:	96 e8       	ldi	r25, 0x86	; 134
    130c:	86 2f       	mov	r24, r22
    130e:	70 e0       	ldi	r23, 0x00	; 0
    1310:	60 e0       	ldi	r22, 0x00	; 0
    1312:	2a f0       	brmi	.+10     	; 0x131e <__floatsisf+0x6c>
    1314:	9a 95       	dec	r25
    1316:	66 0f       	add	r22, r22
    1318:	77 1f       	adc	r23, r23
    131a:	88 1f       	adc	r24, r24
    131c:	da f7       	brpl	.-10     	; 0x1314 <__floatsisf+0x62>
    131e:	88 0f       	add	r24, r24
    1320:	96 95       	lsr	r25
    1322:	87 95       	ror	r24
    1324:	97 f9       	bld	r25, 7
    1326:	08 95       	ret

00001328 <__fp_cmp>:
    1328:	99 0f       	add	r25, r25
    132a:	00 08       	sbc	r0, r0
    132c:	55 0f       	add	r21, r21
    132e:	aa 0b       	sbc	r26, r26
    1330:	e0 e8       	ldi	r30, 0x80	; 128
    1332:	fe ef       	ldi	r31, 0xFE	; 254
    1334:	16 16       	cp	r1, r22
    1336:	17 06       	cpc	r1, r23
    1338:	e8 07       	cpc	r30, r24
    133a:	f9 07       	cpc	r31, r25
    133c:	c0 f0       	brcs	.+48     	; 0x136e <__fp_cmp+0x46>
    133e:	12 16       	cp	r1, r18
    1340:	13 06       	cpc	r1, r19
    1342:	e4 07       	cpc	r30, r20
    1344:	f5 07       	cpc	r31, r21
    1346:	98 f0       	brcs	.+38     	; 0x136e <__fp_cmp+0x46>
    1348:	62 1b       	sub	r22, r18
    134a:	73 0b       	sbc	r23, r19
    134c:	84 0b       	sbc	r24, r20
    134e:	95 0b       	sbc	r25, r21
    1350:	39 f4       	brne	.+14     	; 0x1360 <__fp_cmp+0x38>
    1352:	0a 26       	eor	r0, r26
    1354:	61 f0       	breq	.+24     	; 0x136e <__fp_cmp+0x46>
    1356:	23 2b       	or	r18, r19
    1358:	24 2b       	or	r18, r20
    135a:	25 2b       	or	r18, r21
    135c:	21 f4       	brne	.+8      	; 0x1366 <__fp_cmp+0x3e>
    135e:	08 95       	ret
    1360:	0a 26       	eor	r0, r26
    1362:	09 f4       	brne	.+2      	; 0x1366 <__fp_cmp+0x3e>
    1364:	a1 40       	sbci	r26, 0x01	; 1
    1366:	a6 95       	lsr	r26
    1368:	8f ef       	ldi	r24, 0xFF	; 255
    136a:	81 1d       	adc	r24, r1
    136c:	81 1d       	adc	r24, r1
    136e:	08 95       	ret

00001370 <__fp_inf>:
    1370:	97 f9       	bld	r25, 7
    1372:	9f 67       	ori	r25, 0x7F	; 127
    1374:	80 e8       	ldi	r24, 0x80	; 128
    1376:	70 e0       	ldi	r23, 0x00	; 0
    1378:	60 e0       	ldi	r22, 0x00	; 0
    137a:	08 95       	ret

0000137c <__fp_nan>:
    137c:	9f ef       	ldi	r25, 0xFF	; 255
    137e:	80 ec       	ldi	r24, 0xC0	; 192
    1380:	08 95       	ret

00001382 <__fp_pscA>:
    1382:	00 24       	eor	r0, r0
    1384:	0a 94       	dec	r0
    1386:	16 16       	cp	r1, r22
    1388:	17 06       	cpc	r1, r23
    138a:	18 06       	cpc	r1, r24
    138c:	09 06       	cpc	r0, r25
    138e:	08 95       	ret

00001390 <__fp_pscB>:
    1390:	00 24       	eor	r0, r0
    1392:	0a 94       	dec	r0
    1394:	12 16       	cp	r1, r18
    1396:	13 06       	cpc	r1, r19
    1398:	14 06       	cpc	r1, r20
    139a:	05 06       	cpc	r0, r21
    139c:	08 95       	ret

0000139e <__fp_round>:
    139e:	09 2e       	mov	r0, r25
    13a0:	03 94       	inc	r0
    13a2:	00 0c       	add	r0, r0
    13a4:	11 f4       	brne	.+4      	; 0x13aa <__fp_round+0xc>
    13a6:	88 23       	and	r24, r24
    13a8:	52 f0       	brmi	.+20     	; 0x13be <__fp_round+0x20>
    13aa:	bb 0f       	add	r27, r27
    13ac:	40 f4       	brcc	.+16     	; 0x13be <__fp_round+0x20>
    13ae:	bf 2b       	or	r27, r31
    13b0:	11 f4       	brne	.+4      	; 0x13b6 <__fp_round+0x18>
    13b2:	60 ff       	sbrs	r22, 0
    13b4:	04 c0       	rjmp	.+8      	; 0x13be <__fp_round+0x20>
    13b6:	6f 5f       	subi	r22, 0xFF	; 255
    13b8:	7f 4f       	sbci	r23, 0xFF	; 255
    13ba:	8f 4f       	sbci	r24, 0xFF	; 255
    13bc:	9f 4f       	sbci	r25, 0xFF	; 255
    13be:	08 95       	ret

000013c0 <__fp_split3>:
    13c0:	57 fd       	sbrc	r21, 7
    13c2:	90 58       	subi	r25, 0x80	; 128
    13c4:	44 0f       	add	r20, r20
    13c6:	55 1f       	adc	r21, r21
    13c8:	59 f0       	breq	.+22     	; 0x13e0 <__fp_splitA+0x10>
    13ca:	5f 3f       	cpi	r21, 0xFF	; 255
    13cc:	71 f0       	breq	.+28     	; 0x13ea <__fp_splitA+0x1a>
    13ce:	47 95       	ror	r20

000013d0 <__fp_splitA>:
    13d0:	88 0f       	add	r24, r24
    13d2:	97 fb       	bst	r25, 7
    13d4:	99 1f       	adc	r25, r25
    13d6:	61 f0       	breq	.+24     	; 0x13f0 <__fp_splitA+0x20>
    13d8:	9f 3f       	cpi	r25, 0xFF	; 255
    13da:	79 f0       	breq	.+30     	; 0x13fa <__fp_splitA+0x2a>
    13dc:	87 95       	ror	r24
    13de:	08 95       	ret
    13e0:	12 16       	cp	r1, r18
    13e2:	13 06       	cpc	r1, r19
    13e4:	14 06       	cpc	r1, r20
    13e6:	55 1f       	adc	r21, r21
    13e8:	f2 cf       	rjmp	.-28     	; 0x13ce <__fp_split3+0xe>
    13ea:	46 95       	lsr	r20
    13ec:	f1 df       	rcall	.-30     	; 0x13d0 <__fp_splitA>
    13ee:	08 c0       	rjmp	.+16     	; 0x1400 <__fp_splitA+0x30>
    13f0:	16 16       	cp	r1, r22
    13f2:	17 06       	cpc	r1, r23
    13f4:	18 06       	cpc	r1, r24
    13f6:	99 1f       	adc	r25, r25
    13f8:	f1 cf       	rjmp	.-30     	; 0x13dc <__fp_splitA+0xc>
    13fa:	86 95       	lsr	r24
    13fc:	71 05       	cpc	r23, r1
    13fe:	61 05       	cpc	r22, r1
    1400:	08 94       	sec
    1402:	08 95       	ret

00001404 <__fp_zero>:
    1404:	e8 94       	clt

00001406 <__fp_szero>:
    1406:	bb 27       	eor	r27, r27
    1408:	66 27       	eor	r22, r22
    140a:	77 27       	eor	r23, r23
    140c:	cb 01       	movw	r24, r22
    140e:	97 f9       	bld	r25, 7
    1410:	08 95       	ret

00001412 <__gesf2>:
    1412:	8a df       	rcall	.-236    	; 0x1328 <__fp_cmp>
    1414:	08 f4       	brcc	.+2      	; 0x1418 <__gesf2+0x6>
    1416:	8f ef       	ldi	r24, 0xFF	; 255
    1418:	08 95       	ret

0000141a <__mulsf3>:
    141a:	0b d0       	rcall	.+22     	; 0x1432 <__mulsf3x>
    141c:	c0 cf       	rjmp	.-128    	; 0x139e <__fp_round>
    141e:	b1 df       	rcall	.-158    	; 0x1382 <__fp_pscA>
    1420:	28 f0       	brcs	.+10     	; 0x142c <__mulsf3+0x12>
    1422:	b6 df       	rcall	.-148    	; 0x1390 <__fp_pscB>
    1424:	18 f0       	brcs	.+6      	; 0x142c <__mulsf3+0x12>
    1426:	95 23       	and	r25, r21
    1428:	09 f0       	breq	.+2      	; 0x142c <__mulsf3+0x12>
    142a:	a2 cf       	rjmp	.-188    	; 0x1370 <__fp_inf>
    142c:	a7 cf       	rjmp	.-178    	; 0x137c <__fp_nan>
    142e:	11 24       	eor	r1, r1
    1430:	ea cf       	rjmp	.-44     	; 0x1406 <__fp_szero>

00001432 <__mulsf3x>:
    1432:	c6 df       	rcall	.-116    	; 0x13c0 <__fp_split3>
    1434:	a0 f3       	brcs	.-24     	; 0x141e <__mulsf3+0x4>

00001436 <__mulsf3_pse>:
    1436:	95 9f       	mul	r25, r21
    1438:	d1 f3       	breq	.-12     	; 0x142e <__mulsf3+0x14>
    143a:	95 0f       	add	r25, r21
    143c:	50 e0       	ldi	r21, 0x00	; 0
    143e:	55 1f       	adc	r21, r21
    1440:	62 9f       	mul	r22, r18
    1442:	f0 01       	movw	r30, r0
    1444:	72 9f       	mul	r23, r18
    1446:	bb 27       	eor	r27, r27
    1448:	f0 0d       	add	r31, r0
    144a:	b1 1d       	adc	r27, r1
    144c:	63 9f       	mul	r22, r19
    144e:	aa 27       	eor	r26, r26
    1450:	f0 0d       	add	r31, r0
    1452:	b1 1d       	adc	r27, r1
    1454:	aa 1f       	adc	r26, r26
    1456:	64 9f       	mul	r22, r20
    1458:	66 27       	eor	r22, r22
    145a:	b0 0d       	add	r27, r0
    145c:	a1 1d       	adc	r26, r1
    145e:	66 1f       	adc	r22, r22
    1460:	82 9f       	mul	r24, r18
    1462:	22 27       	eor	r18, r18
    1464:	b0 0d       	add	r27, r0
    1466:	a1 1d       	adc	r26, r1
    1468:	62 1f       	adc	r22, r18
    146a:	73 9f       	mul	r23, r19
    146c:	b0 0d       	add	r27, r0
    146e:	a1 1d       	adc	r26, r1
    1470:	62 1f       	adc	r22, r18
    1472:	83 9f       	mul	r24, r19
    1474:	a0 0d       	add	r26, r0
    1476:	61 1d       	adc	r22, r1
    1478:	22 1f       	adc	r18, r18
    147a:	74 9f       	mul	r23, r20
    147c:	33 27       	eor	r19, r19
    147e:	a0 0d       	add	r26, r0
    1480:	61 1d       	adc	r22, r1
    1482:	23 1f       	adc	r18, r19
    1484:	84 9f       	mul	r24, r20
    1486:	60 0d       	add	r22, r0
    1488:	21 1d       	adc	r18, r1
    148a:	82 2f       	mov	r24, r18
    148c:	76 2f       	mov	r23, r22
    148e:	6a 2f       	mov	r22, r26
    1490:	11 24       	eor	r1, r1
    1492:	9f 57       	subi	r25, 0x7F	; 127
    1494:	50 40       	sbci	r21, 0x00	; 0
    1496:	8a f0       	brmi	.+34     	; 0x14ba <__mulsf3_pse+0x84>
    1498:	e1 f0       	breq	.+56     	; 0x14d2 <__mulsf3_pse+0x9c>
    149a:	88 23       	and	r24, r24
    149c:	4a f0       	brmi	.+18     	; 0x14b0 <__mulsf3_pse+0x7a>
    149e:	ee 0f       	add	r30, r30
    14a0:	ff 1f       	adc	r31, r31
    14a2:	bb 1f       	adc	r27, r27
    14a4:	66 1f       	adc	r22, r22
    14a6:	77 1f       	adc	r23, r23
    14a8:	88 1f       	adc	r24, r24
    14aa:	91 50       	subi	r25, 0x01	; 1
    14ac:	50 40       	sbci	r21, 0x00	; 0
    14ae:	a9 f7       	brne	.-22     	; 0x149a <__mulsf3_pse+0x64>
    14b0:	9e 3f       	cpi	r25, 0xFE	; 254
    14b2:	51 05       	cpc	r21, r1
    14b4:	70 f0       	brcs	.+28     	; 0x14d2 <__mulsf3_pse+0x9c>
    14b6:	5c cf       	rjmp	.-328    	; 0x1370 <__fp_inf>
    14b8:	a6 cf       	rjmp	.-180    	; 0x1406 <__fp_szero>
    14ba:	5f 3f       	cpi	r21, 0xFF	; 255
    14bc:	ec f3       	brlt	.-6      	; 0x14b8 <__mulsf3_pse+0x82>
    14be:	98 3e       	cpi	r25, 0xE8	; 232
    14c0:	dc f3       	brlt	.-10     	; 0x14b8 <__mulsf3_pse+0x82>
    14c2:	86 95       	lsr	r24
    14c4:	77 95       	ror	r23
    14c6:	67 95       	ror	r22
    14c8:	b7 95       	ror	r27
    14ca:	f7 95       	ror	r31
    14cc:	e7 95       	ror	r30
    14ce:	9f 5f       	subi	r25, 0xFF	; 255
    14d0:	c1 f7       	brne	.-16     	; 0x14c2 <__mulsf3_pse+0x8c>
    14d2:	fe 2b       	or	r31, r30
    14d4:	88 0f       	add	r24, r24
    14d6:	91 1d       	adc	r25, r1
    14d8:	96 95       	lsr	r25
    14da:	87 95       	ror	r24
    14dc:	97 f9       	bld	r25, 7
    14de:	08 95       	ret

000014e0 <malloc>:
    14e0:	cf 93       	push	r28
    14e2:	df 93       	push	r29
    14e4:	bc 01       	movw	r22, r24
    14e6:	82 30       	cpi	r24, 0x02	; 2
    14e8:	91 05       	cpc	r25, r1
    14ea:	10 f4       	brcc	.+4      	; 0x14f0 <malloc+0x10>
    14ec:	62 e0       	ldi	r22, 0x02	; 2
    14ee:	70 e0       	ldi	r23, 0x00	; 0
    14f0:	a0 91 30 03 	lds	r26, 0x0330
    14f4:	b0 91 31 03 	lds	r27, 0x0331
    14f8:	ed 01       	movw	r28, r26
    14fa:	e0 e0       	ldi	r30, 0x00	; 0
    14fc:	f0 e0       	ldi	r31, 0x00	; 0
    14fe:	40 e0       	ldi	r20, 0x00	; 0
    1500:	50 e0       	ldi	r21, 0x00	; 0
    1502:	21 c0       	rjmp	.+66     	; 0x1546 <malloc+0x66>
    1504:	88 81       	ld	r24, Y
    1506:	99 81       	ldd	r25, Y+1	; 0x01
    1508:	86 17       	cp	r24, r22
    150a:	97 07       	cpc	r25, r23
    150c:	69 f4       	brne	.+26     	; 0x1528 <malloc+0x48>
    150e:	8a 81       	ldd	r24, Y+2	; 0x02
    1510:	9b 81       	ldd	r25, Y+3	; 0x03
    1512:	30 97       	sbiw	r30, 0x00	; 0
    1514:	19 f0       	breq	.+6      	; 0x151c <malloc+0x3c>
    1516:	93 83       	std	Z+3, r25	; 0x03
    1518:	82 83       	std	Z+2, r24	; 0x02
    151a:	04 c0       	rjmp	.+8      	; 0x1524 <malloc+0x44>
    151c:	90 93 31 03 	sts	0x0331, r25
    1520:	80 93 30 03 	sts	0x0330, r24
    1524:	fe 01       	movw	r30, r28
    1526:	34 c0       	rjmp	.+104    	; 0x1590 <malloc+0xb0>
    1528:	68 17       	cp	r22, r24
    152a:	79 07       	cpc	r23, r25
    152c:	38 f4       	brcc	.+14     	; 0x153c <malloc+0x5c>
    152e:	41 15       	cp	r20, r1
    1530:	51 05       	cpc	r21, r1
    1532:	19 f0       	breq	.+6      	; 0x153a <malloc+0x5a>
    1534:	84 17       	cp	r24, r20
    1536:	95 07       	cpc	r25, r21
    1538:	08 f4       	brcc	.+2      	; 0x153c <malloc+0x5c>
    153a:	ac 01       	movw	r20, r24
    153c:	fe 01       	movw	r30, r28
    153e:	8a 81       	ldd	r24, Y+2	; 0x02
    1540:	9b 81       	ldd	r25, Y+3	; 0x03
    1542:	9c 01       	movw	r18, r24
    1544:	e9 01       	movw	r28, r18
    1546:	20 97       	sbiw	r28, 0x00	; 0
    1548:	e9 f6       	brne	.-70     	; 0x1504 <malloc+0x24>
    154a:	41 15       	cp	r20, r1
    154c:	51 05       	cpc	r21, r1
    154e:	a9 f1       	breq	.+106    	; 0x15ba <malloc+0xda>
    1550:	ca 01       	movw	r24, r20
    1552:	86 1b       	sub	r24, r22
    1554:	97 0b       	sbc	r25, r23
    1556:	04 97       	sbiw	r24, 0x04	; 4
    1558:	08 f4       	brcc	.+2      	; 0x155c <malloc+0x7c>
    155a:	ba 01       	movw	r22, r20
    155c:	e0 e0       	ldi	r30, 0x00	; 0
    155e:	f0 e0       	ldi	r31, 0x00	; 0
    1560:	2a c0       	rjmp	.+84     	; 0x15b6 <malloc+0xd6>
    1562:	8d 91       	ld	r24, X+
    1564:	9c 91       	ld	r25, X
    1566:	11 97       	sbiw	r26, 0x01	; 1
    1568:	84 17       	cp	r24, r20
    156a:	95 07       	cpc	r25, r21
    156c:	f9 f4       	brne	.+62     	; 0x15ac <malloc+0xcc>
    156e:	64 17       	cp	r22, r20
    1570:	75 07       	cpc	r23, r21
    1572:	81 f4       	brne	.+32     	; 0x1594 <malloc+0xb4>
    1574:	12 96       	adiw	r26, 0x02	; 2
    1576:	8d 91       	ld	r24, X+
    1578:	9c 91       	ld	r25, X
    157a:	13 97       	sbiw	r26, 0x03	; 3
    157c:	30 97       	sbiw	r30, 0x00	; 0
    157e:	19 f0       	breq	.+6      	; 0x1586 <malloc+0xa6>
    1580:	93 83       	std	Z+3, r25	; 0x03
    1582:	82 83       	std	Z+2, r24	; 0x02
    1584:	04 c0       	rjmp	.+8      	; 0x158e <malloc+0xae>
    1586:	90 93 31 03 	sts	0x0331, r25
    158a:	80 93 30 03 	sts	0x0330, r24
    158e:	fd 01       	movw	r30, r26
    1590:	32 96       	adiw	r30, 0x02	; 2
    1592:	4f c0       	rjmp	.+158    	; 0x1632 <malloc+0x152>
    1594:	ca 01       	movw	r24, r20
    1596:	86 1b       	sub	r24, r22
    1598:	97 0b       	sbc	r25, r23
    159a:	fd 01       	movw	r30, r26
    159c:	e8 0f       	add	r30, r24
    159e:	f9 1f       	adc	r31, r25
    15a0:	61 93       	st	Z+, r22
    15a2:	71 93       	st	Z+, r23
    15a4:	02 97       	sbiw	r24, 0x02	; 2
    15a6:	8d 93       	st	X+, r24
    15a8:	9c 93       	st	X, r25
    15aa:	43 c0       	rjmp	.+134    	; 0x1632 <malloc+0x152>
    15ac:	fd 01       	movw	r30, r26
    15ae:	82 81       	ldd	r24, Z+2	; 0x02
    15b0:	93 81       	ldd	r25, Z+3	; 0x03
    15b2:	9c 01       	movw	r18, r24
    15b4:	d9 01       	movw	r26, r18
    15b6:	10 97       	sbiw	r26, 0x00	; 0
    15b8:	a1 f6       	brne	.-88     	; 0x1562 <malloc+0x82>
    15ba:	80 91 2e 03 	lds	r24, 0x032E
    15be:	90 91 2f 03 	lds	r25, 0x032F
    15c2:	89 2b       	or	r24, r25
    15c4:	41 f4       	brne	.+16     	; 0x15d6 <malloc+0xf6>
    15c6:	80 91 02 01 	lds	r24, 0x0102
    15ca:	90 91 03 01 	lds	r25, 0x0103
    15ce:	90 93 2f 03 	sts	0x032F, r25
    15d2:	80 93 2e 03 	sts	0x032E, r24
    15d6:	40 91 04 01 	lds	r20, 0x0104
    15da:	50 91 05 01 	lds	r21, 0x0105
    15de:	41 15       	cp	r20, r1
    15e0:	51 05       	cpc	r21, r1
    15e2:	41 f4       	brne	.+16     	; 0x15f4 <malloc+0x114>
    15e4:	4d b7       	in	r20, 0x3d	; 61
    15e6:	5e b7       	in	r21, 0x3e	; 62
    15e8:	80 91 00 01 	lds	r24, 0x0100
    15ec:	90 91 01 01 	lds	r25, 0x0101
    15f0:	48 1b       	sub	r20, r24
    15f2:	59 0b       	sbc	r21, r25
    15f4:	20 91 2e 03 	lds	r18, 0x032E
    15f8:	30 91 2f 03 	lds	r19, 0x032F
    15fc:	24 17       	cp	r18, r20
    15fe:	35 07       	cpc	r19, r21
    1600:	b0 f4       	brcc	.+44     	; 0x162e <malloc+0x14e>
    1602:	ca 01       	movw	r24, r20
    1604:	82 1b       	sub	r24, r18
    1606:	93 0b       	sbc	r25, r19
    1608:	86 17       	cp	r24, r22
    160a:	97 07       	cpc	r25, r23
    160c:	80 f0       	brcs	.+32     	; 0x162e <malloc+0x14e>
    160e:	ab 01       	movw	r20, r22
    1610:	4e 5f       	subi	r20, 0xFE	; 254
    1612:	5f 4f       	sbci	r21, 0xFF	; 255
    1614:	84 17       	cp	r24, r20
    1616:	95 07       	cpc	r25, r21
    1618:	50 f0       	brcs	.+20     	; 0x162e <malloc+0x14e>
    161a:	42 0f       	add	r20, r18
    161c:	53 1f       	adc	r21, r19
    161e:	50 93 2f 03 	sts	0x032F, r21
    1622:	40 93 2e 03 	sts	0x032E, r20
    1626:	f9 01       	movw	r30, r18
    1628:	61 93       	st	Z+, r22
    162a:	71 93       	st	Z+, r23
    162c:	02 c0       	rjmp	.+4      	; 0x1632 <malloc+0x152>
    162e:	e0 e0       	ldi	r30, 0x00	; 0
    1630:	f0 e0       	ldi	r31, 0x00	; 0
    1632:	cf 01       	movw	r24, r30
    1634:	df 91       	pop	r29
    1636:	cf 91       	pop	r28
    1638:	08 95       	ret

0000163a <free>:
    163a:	cf 93       	push	r28
    163c:	df 93       	push	r29
    163e:	00 97       	sbiw	r24, 0x00	; 0
    1640:	09 f4       	brne	.+2      	; 0x1644 <free+0xa>
    1642:	50 c0       	rjmp	.+160    	; 0x16e4 <free+0xaa>
    1644:	ec 01       	movw	r28, r24
    1646:	22 97       	sbiw	r28, 0x02	; 2
    1648:	1b 82       	std	Y+3, r1	; 0x03
    164a:	1a 82       	std	Y+2, r1	; 0x02
    164c:	a0 91 30 03 	lds	r26, 0x0330
    1650:	b0 91 31 03 	lds	r27, 0x0331
    1654:	10 97       	sbiw	r26, 0x00	; 0
    1656:	09 f1       	breq	.+66     	; 0x169a <free+0x60>
    1658:	40 e0       	ldi	r20, 0x00	; 0
    165a:	50 e0       	ldi	r21, 0x00	; 0
    165c:	ac 17       	cp	r26, r28
    165e:	bd 07       	cpc	r27, r29
    1660:	08 f1       	brcs	.+66     	; 0x16a4 <free+0x6a>
    1662:	bb 83       	std	Y+3, r27	; 0x03
    1664:	aa 83       	std	Y+2, r26	; 0x02
    1666:	fe 01       	movw	r30, r28
    1668:	21 91       	ld	r18, Z+
    166a:	31 91       	ld	r19, Z+
    166c:	e2 0f       	add	r30, r18
    166e:	f3 1f       	adc	r31, r19
    1670:	ae 17       	cp	r26, r30
    1672:	bf 07       	cpc	r27, r31
    1674:	79 f4       	brne	.+30     	; 0x1694 <free+0x5a>
    1676:	8d 91       	ld	r24, X+
    1678:	9c 91       	ld	r25, X
    167a:	11 97       	sbiw	r26, 0x01	; 1
    167c:	28 0f       	add	r18, r24
    167e:	39 1f       	adc	r19, r25
    1680:	2e 5f       	subi	r18, 0xFE	; 254
    1682:	3f 4f       	sbci	r19, 0xFF	; 255
    1684:	39 83       	std	Y+1, r19	; 0x01
    1686:	28 83       	st	Y, r18
    1688:	12 96       	adiw	r26, 0x02	; 2
    168a:	8d 91       	ld	r24, X+
    168c:	9c 91       	ld	r25, X
    168e:	13 97       	sbiw	r26, 0x03	; 3
    1690:	9b 83       	std	Y+3, r25	; 0x03
    1692:	8a 83       	std	Y+2, r24	; 0x02
    1694:	41 15       	cp	r20, r1
    1696:	51 05       	cpc	r21, r1
    1698:	71 f4       	brne	.+28     	; 0x16b6 <free+0x7c>
    169a:	d0 93 31 03 	sts	0x0331, r29
    169e:	c0 93 30 03 	sts	0x0330, r28
    16a2:	20 c0       	rjmp	.+64     	; 0x16e4 <free+0xaa>
    16a4:	12 96       	adiw	r26, 0x02	; 2
    16a6:	8d 91       	ld	r24, X+
    16a8:	9c 91       	ld	r25, X
    16aa:	13 97       	sbiw	r26, 0x03	; 3
    16ac:	ad 01       	movw	r20, r26
    16ae:	00 97       	sbiw	r24, 0x00	; 0
    16b0:	11 f0       	breq	.+4      	; 0x16b6 <free+0x7c>
    16b2:	dc 01       	movw	r26, r24
    16b4:	d3 cf       	rjmp	.-90     	; 0x165c <free+0x22>
    16b6:	fa 01       	movw	r30, r20
    16b8:	d3 83       	std	Z+3, r29	; 0x03
    16ba:	c2 83       	std	Z+2, r28	; 0x02
    16bc:	21 91       	ld	r18, Z+
    16be:	31 91       	ld	r19, Z+
    16c0:	e2 0f       	add	r30, r18
    16c2:	f3 1f       	adc	r31, r19
    16c4:	ce 17       	cp	r28, r30
    16c6:	df 07       	cpc	r29, r31
    16c8:	69 f4       	brne	.+26     	; 0x16e4 <free+0xaa>
    16ca:	88 81       	ld	r24, Y
    16cc:	99 81       	ldd	r25, Y+1	; 0x01
    16ce:	28 0f       	add	r18, r24
    16d0:	39 1f       	adc	r19, r25
    16d2:	2e 5f       	subi	r18, 0xFE	; 254
    16d4:	3f 4f       	sbci	r19, 0xFF	; 255
    16d6:	fa 01       	movw	r30, r20
    16d8:	31 83       	std	Z+1, r19	; 0x01
    16da:	20 83       	st	Z, r18
    16dc:	8a 81       	ldd	r24, Y+2	; 0x02
    16de:	9b 81       	ldd	r25, Y+3	; 0x03
    16e0:	93 83       	std	Z+3, r25	; 0x03
    16e2:	82 83       	std	Z+2, r24	; 0x02
    16e4:	df 91       	pop	r29
    16e6:	cf 91       	pop	r28
    16e8:	08 95       	ret

000016ea <_exit>:
    16ea:	f8 94       	cli

000016ec <__stop_program>:
    16ec:	ff cf       	rjmp	.-2      	; 0x16ec <__stop_program>
